
.//main.elf:     file format elf32-sparc


Disassembly of section .text:

00000000 <_start>:
       0:	9c 10 30 00 	mov  -4096, %sp
       4:	bc 10 30 00 	mov  -4096, %fp
       8:	a0 10 20 01 	mov  1, %l0
       c:	81 94 20 00 	mov  %l0, %wim
      10:	21 00 00 0c 	sethi  %hi(0x3000), %l0
      14:	a0 14 20 00 	mov  %l0, %l0	! 3000 <trap_table_base>
      18:	81 9c 20 00 	mov  %l0, %tbr
      1c:	40 00 05 f9 	call  1800 <page_table_setup>
      20:	01 00 00 00 	nop 
      24:	40 00 05 ff 	call  1820 <set_context_table_pointer>
      28:	01 00 00 00 	nop 
      2c:	21 00 00 04 	sethi  %hi(0x1000), %l0
      30:	a0 14 20 e7 	or  %l0, 0xe7, %l0	! 10e7 <__kernel_rem_pio2+0x663>
      34:	81 88 00 10 	mov  %l0, %psr
      38:	90 10 20 01 	mov  1, %o0
      3c:	d0 a0 00 80 	sta  %o0, [ %g0 ] #ASI_N
      40:	40 00 0f ee 	call  3ff8 <main>
      44:	01 00 00 00 	nop 
      48:	91 d0 20 00 	ta  0

0000004c <gen>:
      4c:	9d e3 bf 88 	save  %sp, -120, %sp
      50:	31 10 00 10 	sethi  %hi(0x40004000), %i0
      54:	b0 16 22 f0 	or  %i0, 0x2f0, %i0	! 400042f0 <data>
      58:	81 e8 00 00 	restore 
      5c:	81 c3 e0 08 	retl 
      60:	01 00 00 00 	nop 

00000064 <datax>:
      64:	9d e3 bf 88 	save  %sp, -120, %sp
      68:	31 10 00 00 	sethi  %hi(0x40000000), %i0
      6c:	b0 16 22 f0 	or  %i0, 0x2f0, %i0	! 400002f0 <wr>
      70:	81 e8 00 00 	restore 
      74:	81 c3 e0 08 	retl 
      78:	01 00 00 00 	nop 

0000007c <FFT>:
      7c:	9d e3 bf a0 	save  %sp, -96, %sp
      80:	09 10 00 00 	sethi  %hi(0x40000000), %g4
      84:	03 10 00 00 	sethi  %hi(0x40000000), %g1
      88:	b2 06 40 19 	add  %i1, %i1, %i1
      8c:	eb 00 61 d8 	ld  [ %g1 + 0x1d8 ], %f21
      90:	e9 01 21 dc 	ld  [ %g4 + 0x1dc ], %f20
      94:	ad a0 00 35 	fmovs  %f21, %f22
      98:	09 10 00 00 	sethi  %hi(0x40000000), %g4
      9c:	9a 10 20 00 	clr  %o5
      a0:	ef 01 21 e0 	ld  [ %g4 + 0x1e0 ], %f23
      a4:	80 a6 60 02 	cmp  %i1, 2
      a8:	14 80 00 06 	bg  c0 <FFT+0x44>
      ac:	ba 10 20 02 	mov  2, %i5
      b0:	30 80 00 2e 	b,a   168 <FFT+0xec>
      b4:	80 a6 40 1c 	cmp  %i1, %i4
      b8:	04 80 00 2c 	ble  168 <FFT+0xec>
      bc:	ba 10 00 1c 	mov  %i4, %i5
      c0:	80 a7 60 01 	cmp  %i5, 1
      c4:	04 bf ff fc 	ble  b4 <FFT+0x38>
      c8:	b8 07 40 1d 	add  %i5, %i5, %i4
      cc:	b6 10 00 0d 	mov  %o5, %i3
      d0:	9e 10 20 01 	mov  1, %o7
      d4:	80 a6 40 0f 	cmp  %i1, %o7
      d8:	06 80 00 15 	bl  12c <FFT+0xb0>
      dc:	82 10 00 0f 	mov  %o7, %g1
      e0:	88 00 40 1d 	add  %g1, %i5, %g4
      e4:	85 29 20 02 	sll  %g4, 2, %g2
      e8:	84 00 80 18 	add  %g2, %i0, %g2
      ec:	87 28 60 02 	sll  %g1, 2, %g3
      f0:	86 00 c0 18 	add  %g3, %i0, %g3
      f4:	d5 18 bf fc 	ldd  [ %g2 + -4 ], %f10
      f8:	d1 18 ff fc 	ldd  [ %g3 + -4 ], %f8
      fc:	b1 a2 a8 d6 	vfmul32  %f10, %f22, %f24
     100:	99 a6 08 39 	fadds  %f24, %f25, %f12
     104:	b1 a2 a8 d4 	vfmul32  %f10, %f20, %f24
     108:	9b a6 08 39 	fadds  %f24, %f25, %f13
     10c:	95 a2 28 8c 	vfsub32  %f8, %f12, %f10
     110:	d5 38 bf fc 	std  %f10, [ %g2 + -4 ]
     114:	91 a2 28 4c 	vfadd32  %f8, %f12, %f8
     118:	d1 38 ff fc 	std  %f8, [ %g3 + -4 ]
     11c:	82 00 40 1c 	add  %g1, %i4, %g1
     120:	80 a6 40 01 	cmp  %i1, %g1
     124:	16 bf ff f0 	bge  e4 <FFT+0x68>
     128:	88 00 40 1d 	add  %g1, %i5, %g4
     12c:	b6 06 e0 08 	add  %i3, 8, %i3
     130:	e9 1e 80 1b 	ldd  [ %i2 + %i3 ], %f20
     134:	ad a0 00 35 	fmovs  %f21, %f22
     138:	af a0 00 b4 	fnegs  %f20, %f23
     13c:	9e 03 e0 02 	add  %o7, 2, %o7
     140:	80 a3 c0 1d 	cmp  %o7, %i5
     144:	06 bf ff e4 	bl  d4 <FFT+0x58>
     148:	80 a6 40 1c 	cmp  %i1, %i4
     14c:	ba 07 7f fe 	add  %i5, -2, %i5
     150:	bb 37 60 01 	srl  %i5, 1, %i5
     154:	bb 2f 60 03 	sll  %i5, 3, %i5
     158:	9a 03 60 08 	add  %o5, 8, %o5
     15c:	9a 03 40 1d 	add  %o5, %i5, %o5
     160:	14 bf ff d8 	bg  c0 <FFT+0x44>
     164:	ba 10 00 1c 	mov  %i4, %i5
     168:	81 c7 e0 08 	ret 
     16c:	81 e8 00 00 	restore 

00000170 <Bit_Reverse>:
     170:	9d e3 bf a0 	save  %sp, -96, %sp
     174:	bb 3e 60 01 	sra  %i1, 1, %i5
     178:	80 a7 60 00 	cmp  %i5, 0
     17c:	04 80 00 44 	ble  28c <Bit_Reverse+0x11c>
     180:	9f 3e 60 02 	sra  %i1, 2, %o7
     184:	80 a7 60 01 	cmp  %i5, 1
     188:	04 80 00 43 	ble  294 <Bit_Reverse+0x124>
     18c:	b4 10 20 01 	mov  1, %i2
     190:	b7 2e 60 03 	sll  %i1, 3, %i3
     194:	b8 06 20 08 	add  %i0, 8, %i4
     198:	b6 06 00 1b 	add  %i0, %i3, %i3
     19c:	84 10 20 00 	clr  %g2
     1a0:	88 10 20 00 	clr  %g4
     1a4:	b4 0e a0 ff 	and  %i2, 0xff, %i2
     1a8:	80 a7 40 02 	cmp  %i5, %g2
     1ac:	04 80 00 03 	ble  1b8 <Bit_Reverse+0x48>
     1b0:	82 10 20 01 	mov  1, %g1
     1b4:	82 10 20 00 	clr  %g1
     1b8:	80 88 60 ff 	btst  0xff, %g1
     1bc:	02 80 00 19 	be  220 <Bit_Reverse+0xb0>
     1c0:	82 10 00 1d 	mov  %i5, %g1
     1c4:	80 a6 a0 00 	cmp  %i2, 0
     1c8:	32 80 00 08 	bne,a   1e8 <Bit_Reverse+0x78>
     1cc:	84 20 80 01 	sub  %g2, %g1, %g2
     1d0:	10 80 00 15 	b  224 <Bit_Reverse+0xb4>
     1d4:	88 01 20 01 	inc  %g4
     1d8:	80 88 e0 ff 	btst  0xff, %g3
     1dc:	22 80 00 12 	be,a   224 <Bit_Reverse+0xb4>
     1e0:	88 01 20 01 	inc  %g4
     1e4:	84 20 80 01 	sub  %g2, %g1, %g2
     1e8:	83 38 60 01 	sra  %g1, 1, %g1
     1ec:	80 a0 80 01 	cmp  %g2, %g1
     1f0:	16 80 00 03 	bge  1fc <Bit_Reverse+0x8c>
     1f4:	86 10 20 01 	mov  1, %g3
     1f8:	86 10 20 00 	clr  %g3
     1fc:	80 88 e0 ff 	btst  0xff, %g3
     200:	02 80 00 08 	be  220 <Bit_Reverse+0xb0>
     204:	80 a0 60 01 	cmp  %g1, 1
     208:	14 bf ff f4 	bg  1d8 <Bit_Reverse+0x68>
     20c:	86 10 20 01 	mov  1, %g3
     210:	86 10 20 00 	clr  %g3
     214:	80 88 e0 ff 	btst  0xff, %g3
     218:	32 bf ff f4 	bne,a   1e8 <Bit_Reverse+0x78>
     21c:	84 20 80 01 	sub  %g2, %g1, %g2
     220:	88 01 20 01 	inc  %g4
     224:	80 a1 00 1d 	cmp  %g4, %i5
     228:	02 80 00 19 	be  28c <Bit_Reverse+0x11c>
     22c:	84 00 80 01 	add  %g2, %g1, %g2
     230:	80 a0 80 04 	cmp  %g2, %g4
     234:	24 80 00 14 	ble,a   284 <Bit_Reverse+0x114>
     238:	b6 06 ff f8 	add  %i3, -8, %i3
     23c:	83 28 a0 03 	sll  %g2, 3, %g1
     240:	d1 1f 00 00 	ldd  [ %i4 ], %f8
     244:	d5 1e 00 01 	ldd  [ %i0 + %g1 ], %f10
     248:	d1 3e 00 01 	std  %f8, [ %i0 + %g1 ]
     24c:	83 30 a0 1f 	srl  %g2, 0x1f, %g1
     250:	82 00 40 02 	add  %g1, %g2, %g1
     254:	83 38 60 01 	sra  %g1, 1, %g1
     258:	80 a3 c0 01 	cmp  %o7, %g1
     25c:	04 80 00 09 	ble  280 <Bit_Reverse+0x110>
     260:	d5 3f 00 00 	std  %f10, [ %i4 ]
     264:	d5 1e ff f0 	ldd  [ %i3 + -16 ], %f10
     268:	82 38 00 02 	xnor  %g0, %g2, %g1
     26c:	82 00 40 19 	add  %g1, %i1, %g1
     270:	83 28 60 03 	sll  %g1, 3, %g1
     274:	d1 1e 00 01 	ldd  [ %i0 + %g1 ], %f8
     278:	d1 3e ff f0 	std  %f8, [ %i3 + -16 ]
     27c:	d5 3e 00 01 	std  %f10, [ %i0 + %g1 ]
     280:	b6 06 ff f8 	add  %i3, -8, %i3
     284:	10 bf ff c9 	b  1a8 <Bit_Reverse+0x38>
     288:	b8 07 20 08 	add  %i4, 8, %i4
     28c:	81 c7 e0 08 	ret 
     290:	81 e8 00 00 	restore 
     294:	10 bf ff bf 	b  190 <Bit_Reverse+0x20>
     298:	b4 10 20 00 	clr  %i2

0000029c <calc_twiddle>:
     29c:	9d e3 bf 78 	save  %sp, -136, %sp
     2a0:	f4 27 bf e4 	st  %i2, [ %fp + -28 ]
     2a4:	b0 06 00 18 	add  %i0, %i0, %i0
     2a8:	80 a6 20 02 	cmp  %i0, 2
     2ac:	04 80 00 51 	ble  3f0 <calc_twiddle+0x154>
     2b0:	d1 07 bf e4 	ld  [ %fp + -28 ], %f8
     2b4:	95 a0 19 28 	fstod  %f8, %f10
     2b8:	37 10 00 00 	sethi  %hi(0x40000000), %i3
     2bc:	ba 10 20 02 	mov  2, %i5
     2c0:	b8 10 20 00 	clr  %i4
     2c4:	d5 3f bf f0 	std  %f10, [ %fp + -16 ]
     2c8:	b6 16 e1 d8 	or  %i3, 0x1d8, %i3
     2cc:	21 10 00 00 	sethi  %hi(0x40000000), %l0
     2d0:	10 80 00 05 	b  2e4 <calc_twiddle+0x48>
     2d4:	b4 06 60 14 	add  %i1, 0x14, %i2
     2d8:	80 a6 00 03 	cmp  %i0, %g3
     2dc:	04 80 00 45 	ble  3f0 <calc_twiddle+0x154>
     2e0:	ba 10 00 03 	mov  %g3, %i5
     2e4:	fa 27 bf e0 	st  %i5, [ %fp + -32 ]
     2e8:	d7 07 bf e0 	ld  [ %fp + -32 ], %f11
     2ec:	03 10 00 00 	sethi  %hi(0x40000000), %g1
     2f0:	91 a0 19 0b 	fitod  %f11, %f8
     2f4:	d5 18 61 e8 	ldd  [ %g1 + 0x1e8 ], %f10
     2f8:	91 a2 89 c8 	fdivd  %f10, %f8, %f8
     2fc:	d5 1f bf f0 	ldd  [ %fp + -16 ], %f10
     300:	91 a2 89 48 	fmuld  %f10, %f8, %f8
     304:	03 10 00 00 	sethi  %hi(0x40000000), %g1
     308:	91 a0 18 c8 	fdtos  %f8, %f8
     30c:	d5 18 61 f0 	ldd  [ %g1 + 0x1f0 ], %f10
     310:	91 a0 19 28 	fstod  %f8, %f8
     314:	95 a2 09 4a 	fmuld  %f8, %f10, %f10
     318:	d1 3f bf e8 	std  %f8, [ %fp + -24 ]
     31c:	d5 3f bf d8 	std  %f10, [ %fp + -40 ]
     320:	40 00 00 36 	call  3f8 <__GI_sin>
     324:	d0 1f bf d8 	ldd  [ %fp + -40 ], %o0
     328:	d1 1f bf e8 	ldd  [ %fp + -24 ], %f8
     32c:	c1 3f bf f8 	std  %f0, [ %fp + -8 ]
     330:	d1 3f bf d8 	std  %f8, [ %fp + -40 ]
     334:	40 00 00 31 	call  3f8 <__GI_sin>
     338:	d0 1f bf d8 	ldd  [ %fp + -40 ], %o0
     33c:	84 07 20 01 	add  %i4, 1, %g2
     340:	d1 06 c0 00 	ld  [ %i3 ], %f8
     344:	85 28 a0 02 	sll  %g2, 2, %g2
     348:	d1 26 40 02 	st  %f8, [ %i1 + %g2 ]
     34c:	83 2f 20 02 	sll  %i4, 2, %g1
     350:	c0 26 40 01 	clr  [ %i1 + %g1 ]
     354:	80 a7 60 01 	cmp  %i5, 1
     358:	04 bf ff e0 	ble  2d8 <calc_twiddle+0x3c>
     35c:	86 07 40 1d 	add  %i5, %i5, %g3
     360:	d5 1f bf f8 	ldd  [ %fp + -8 ], %f10
     364:	91 a0 18 ca 	fdtos  %f10, %f8
     368:	d5 1c 21 f8 	ldd  [ %l0 + 0x1f8 ], %f10
     36c:	91 a0 19 28 	fstod  %f8, %f8
     370:	95 a2 09 4a 	fmuld  %f8, %f10, %f10
     374:	91 a2 09 4a 	fmuld  %f8, %f10, %f8
     378:	9e 07 20 03 	add  %i4, 3, %o7
     37c:	ba 07 7f fe 	add  %i5, -2, %i5
     380:	9f 2b e0 02 	sll  %o7, 2, %o7
     384:	91 a0 18 c8 	fdtos  %f8, %f8
     388:	ba 0f 7f fe 	and  %i5, -2, %i5
     38c:	d5 06 40 02 	ld  [ %i1 + %g2 ], %f10
     390:	88 07 00 1d 	add  %i4, %i5, %g4
     394:	81 a0 18 c0 	fdtos  %f0, %f0
     398:	89 29 20 02 	sll  %g4, 2, %g4
     39c:	84 06 40 0f 	add  %i1, %o7, %g2
     3a0:	88 06 80 04 	add  %i2, %g4, %g4
     3a4:	d3 06 40 01 	ld  [ %i1 + %g1 ], %f9
     3a8:	9d a2 09 2a 	fmuls  %f8, %f10, %f14
     3ac:	99 a0 09 29 	fmuls  %f0, %f9, %f12
     3b0:	9b a2 09 29 	fmuls  %f8, %f9, %f13
     3b4:	97 a0 09 2a 	fmuls  %f0, %f10, %f11
     3b8:	99 a3 88 ac 	fsubs  %f14, %f12, %f12
     3bc:	97 a3 48 2b 	fadds  %f13, %f11, %f11
     3c0:	95 a3 08 2a 	fadds  %f12, %f10, %f10
     3c4:	93 a2 48 2b 	fadds  %f9, %f11, %f9
     3c8:	d5 20 80 00 	st  %f10, [ %g2 ]
     3cc:	d3 20 bf fc 	st  %f9, [ %g2 + -4 ]
     3d0:	84 00 a0 08 	add  %g2, 8, %g2
     3d4:	80 a0 80 04 	cmp  %g2, %g4
     3d8:	12 bf ff f4 	bne  3a8 <calc_twiddle+0x10c>
     3dc:	80 a6 00 03 	cmp  %i0, %g3
     3e0:	b8 07 20 02 	add  %i4, 2, %i4
     3e4:	b8 07 00 1d 	add  %i4, %i5, %i4
     3e8:	14 bf ff bf 	bg  2e4 <calc_twiddle+0x48>
     3ec:	ba 10 00 03 	mov  %g3, %i5
     3f0:	81 c7 e0 08 	ret 
     3f4:	81 e8 00 00 	restore 

000003f8 <__GI_sin>:
     3f8:	9d e3 bf 88 	save  %sp, -120, %sp
     3fc:	03 20 00 00 	sethi  %hi(0x80000000), %g1
     400:	f0 3f bf e8 	std  %i0, [ %fp + -24 ]
     404:	84 2e 00 01 	andn  %i0, %g1, %g2
     408:	2f 10 00 1f 	sethi  %hi(0x40007c00), %l7
     40c:	40 00 0f 02 	call  4014 <__sparc_get_pc_thunk.l7>
     410:	ae 05 e2 e4 	add  %l7, 0x2e4, %l7	! 40007ee4 <data+0x3bf4>
     414:	03 0f fa 48 	sethi  %hi(0x3fe92000), %g1
     418:	82 10 61 fb 	or  %g1, 0x1fb, %g1	! 3fe921fb <__sparc_get_pc_thunk.l7+0x3fe8e1e7>
     41c:	80 a0 80 01 	cmp  %g2, %g1
     420:	14 80 00 0a 	bg  448 <__GI_sin+0x50>
     424:	c1 1f bf e8 	ldd  [ %fp + -24 ], %f0
     428:	03 00 00 20 	sethi  %hi(0x8000), %g1
     42c:	90 10 00 18 	mov  %i0, %o0
     430:	82 18 7f 10 	xor  %g1, -240, %g1
     434:	92 10 00 19 	mov  %i1, %o1
     438:	82 05 c0 01 	add  %l7, %g1, %g1
     43c:	98 10 20 00 	clr  %o4
     440:	10 80 00 17 	b  49c <__GI_sin+0xa4>
     444:	d4 18 40 00 	ldd  [ %g1 ], %o2
     448:	03 1f fb ff 	sethi  %hi(0x7feffc00), %g1
     44c:	82 10 63 ff 	or  %g1, 0x3ff, %g1	! 7fefffff <_GLOBAL_OFFSET_TABLE_+0x3fef7d0f>
     450:	80 a0 80 01 	cmp  %g2, %g1
     454:	24 80 00 05 	ble,a   468 <__GI_sin+0x70>
     458:	c1 3f bf e8 	std  %f0, [ %fp + -24 ]
     45c:	81 a0 08 c0 	fsubd  %f0, %f0, %f0
     460:	81 c7 e0 08 	ret 
     464:	81 e8 00 00 	restore 
     468:	94 07 bf f0 	add  %fp, -16, %o2
     46c:	40 00 00 21 	call  4f0 <__ieee754_rem_pio2>
     470:	d0 1f bf e8 	ldd  [ %fp + -24 ], %o0
     474:	90 0a 20 03 	and  %o0, 3, %o0
     478:	80 a2 20 01 	cmp  %o0, 1
     47c:	02 80 00 0c 	be  4ac <__GI_sin+0xb4>
     480:	80 a2 20 02 	cmp  %o0, 2
     484:	02 80 00 0f 	be  4c0 <__GI_sin+0xc8>
     488:	80 a2 20 00 	cmp  %o0, 0
     48c:	d4 1f bf f8 	ldd  [ %fp + -8 ], %o2
     490:	12 80 00 13 	bne  4dc <__GI_sin+0xe4>
     494:	d0 1f bf f0 	ldd  [ %fp + -16 ], %o0
     498:	98 10 20 01 	mov  1, %o4
     49c:	40 00 03 93 	call  12e8 <__kernel_sin>
     4a0:	01 00 00 00 	nop 
     4a4:	81 c7 e0 08 	ret 
     4a8:	81 e8 00 00 	restore 
     4ac:	d0 1f bf f0 	ldd  [ %fp + -16 ], %o0
     4b0:	40 00 01 09 	call  8d4 <__kernel_cos>
     4b4:	d4 1f bf f8 	ldd  [ %fp + -8 ], %o2
     4b8:	81 c7 e0 08 	ret 
     4bc:	81 e8 00 00 	restore 
     4c0:	d0 1f bf f0 	ldd  [ %fp + -16 ], %o0
     4c4:	d4 1f bf f8 	ldd  [ %fp + -8 ], %o2
     4c8:	40 00 03 88 	call  12e8 <__kernel_sin>
     4cc:	98 10 20 01 	mov  1, %o4
     4d0:	81 a0 00 a0 	fnegs  %f0, %f0
     4d4:	81 c7 e0 08 	ret 
     4d8:	81 e8 00 00 	restore 
     4dc:	40 00 00 fe 	call  8d4 <__kernel_cos>
     4e0:	01 00 00 00 	nop 
     4e4:	81 a0 00 a0 	fnegs  %f0, %f0
     4e8:	81 c7 e0 08 	ret 
     4ec:	81 e8 00 00 	restore 

000004f0 <__ieee754_rem_pio2>:
     4f0:	9d e3 bf 78 	save  %sp, -136, %sp
     4f4:	f0 3f bf e0 	std  %i0, [ %fp + -32 ]
     4f8:	2f 10 00 1f 	sethi  %hi(0x40007c00), %l7
     4fc:	40 00 0e c6 	call  4014 <__sparc_get_pc_thunk.l7>
     500:	ae 05 e1 f4 	add  %l7, 0x1f4, %l7	! 40007df4 <data+0x3b04>
     504:	39 20 00 00 	sethi  %hi(0x80000000), %i4
     508:	09 0f fa 48 	sethi  %hi(0x3fe92000), %g4
     50c:	b8 2e 00 1c 	andn  %i0, %i4, %i4
     510:	88 11 21 fb 	or  %g4, 0x1fb, %g4
     514:	80 a7 00 04 	cmp  %i4, %g4
     518:	14 80 00 09 	bg  53c <__ieee754_rem_pio2+0x4c>
     51c:	d1 1f bf e0 	ldd  [ %fp + -32 ], %f8
     520:	d1 3e 80 00 	std  %f8, [ %i2 ]
     524:	03 00 00 20 	sethi  %hi(0x8000), %g1
     528:	82 18 7f 10 	xor  %g1, -240, %g1
     52c:	82 05 c0 01 	add  %l7, %g1, %g1
     530:	d1 18 40 00 	ldd  [ %g1 ], %f8
     534:	10 80 00 b1 	b  7f8 <__ieee754_rem_pio2+0x308>
     538:	d1 3e a0 08 	std  %f8, [ %i2 + 8 ]
     53c:	05 10 00 b6 	sethi  %hi(0x4002d800), %g2
     540:	84 10 a1 7b 	or  %g2, 0x17b, %g2	! 4002d97b <_GLOBAL_OFFSET_TABLE_+0x2568b>
     544:	80 a7 00 02 	cmp  %i4, %g2
     548:	14 80 00 3a 	bg  630 <__ieee754_rem_pio2+0x140>
     54c:	ba 10 00 18 	mov  %i0, %i5
     550:	3b 00 00 20 	sethi  %hi(0x8000), %i5
     554:	80 a6 20 00 	cmp  %i0, 0
     558:	ba 1f 7f 18 	xor  %i5, -232, %i5
     55c:	ba 05 c0 1d 	add  %l7, %i5, %i5
     560:	04 80 00 1b 	ble  5cc <__ieee754_rem_pio2+0xdc>
     564:	d5 1f 40 00 	ldd  [ %i5 ], %f10
     568:	03 0f fe 48 	sethi  %hi(0x3ff92000), %g1
     56c:	82 10 61 fb 	or  %g1, 0x1fb, %g1	! 3ff921fb <__sparc_get_pc_thunk.l7+0x3ff8e1e7>
     570:	80 a7 00 01 	cmp  %i4, %g1
     574:	02 80 00 06 	be  58c <__ieee754_rem_pio2+0x9c>
     578:	91 a2 08 ca 	fsubd  %f8, %f10, %f8
     57c:	03 00 00 20 	sethi  %hi(0x8000), %g1
     580:	82 18 7f 20 	xor  %g1, -224, %g1
     584:	10 80 00 0a 	b  5ac <__ieee754_rem_pio2+0xbc>
     588:	82 05 c0 01 	add  %l7, %g1, %g1
     58c:	03 00 00 20 	sethi  %hi(0x8000), %g1
     590:	82 18 7f 28 	xor  %g1, -216, %g1
     594:	82 05 c0 01 	add  %l7, %g1, %g1
     598:	d9 18 40 00 	ldd  [ %g1 ], %f12
     59c:	03 00 00 20 	sethi  %hi(0x8000), %g1
     5a0:	91 a2 08 cc 	fsubd  %f8, %f12, %f8
     5a4:	82 18 7f 30 	xor  %g1, -208, %g1
     5a8:	82 05 c0 01 	add  %l7, %g1, %g1
     5ac:	d5 18 40 00 	ldd  [ %g1 ], %f10
     5b0:	99 a2 08 ca 	fsubd  %f8, %f10, %f12
     5b4:	91 a2 08 cc 	fsubd  %f8, %f12, %f8
     5b8:	d9 3e 80 00 	std  %f12, [ %i2 ]
     5bc:	95 a2 08 ca 	fsubd  %f8, %f10, %f10
     5c0:	d5 3e a0 08 	std  %f10, [ %i2 + 8 ]
     5c4:	81 c7 e0 08 	ret 
     5c8:	91 e8 20 01 	restore  %g0, 1, %o0
     5cc:	03 0f fe 48 	sethi  %hi(0x3ff92000), %g1
     5d0:	82 10 61 fb 	or  %g1, 0x1fb, %g1	! 3ff921fb <__sparc_get_pc_thunk.l7+0x3ff8e1e7>
     5d4:	80 a7 00 01 	cmp  %i4, %g1
     5d8:	02 80 00 06 	be  5f0 <__ieee754_rem_pio2+0x100>
     5dc:	91 a2 08 4a 	faddd  %f8, %f10, %f8
     5e0:	03 00 00 20 	sethi  %hi(0x8000), %g1
     5e4:	82 18 7f 20 	xor  %g1, -224, %g1
     5e8:	10 80 00 0a 	b  610 <__ieee754_rem_pio2+0x120>
     5ec:	82 05 c0 01 	add  %l7, %g1, %g1
     5f0:	03 00 00 20 	sethi  %hi(0x8000), %g1
     5f4:	82 18 7f 28 	xor  %g1, -216, %g1
     5f8:	82 05 c0 01 	add  %l7, %g1, %g1
     5fc:	d9 18 40 00 	ldd  [ %g1 ], %f12
     600:	03 00 00 20 	sethi  %hi(0x8000), %g1
     604:	91 a2 08 4c 	faddd  %f8, %f12, %f8
     608:	82 18 7f 30 	xor  %g1, -208, %g1
     60c:	82 05 c0 01 	add  %l7, %g1, %g1
     610:	d5 18 40 00 	ldd  [ %g1 ], %f10
     614:	99 a2 08 4a 	faddd  %f8, %f10, %f12
     618:	91 a2 08 cc 	fsubd  %f8, %f12, %f8
     61c:	d9 3e 80 00 	std  %f12, [ %i2 ]
     620:	95 a2 08 4a 	faddd  %f8, %f10, %f10
     624:	d5 3e a0 08 	std  %f10, [ %i2 + 8 ]
     628:	81 c7 e0 08 	ret 
     62c:	91 e8 3f ff 	restore  %g0, -1, %o0
     630:	03 10 4e 48 	sethi  %hi(0x41392000), %g1
     634:	82 10 61 fb 	or  %g1, 0x1fb, %g1	! 413921fb <_GLOBAL_OFFSET_TABLE_+0x1389f0b>
     638:	80 a7 00 01 	cmp  %i4, %g1
     63c:	14 80 00 68 	bg  7dc <__ieee754_rem_pio2+0x2ec>
     640:	03 1f fb ff 	sethi  %hi(0x7feffc00), %g1
     644:	d1 3f bf e0 	std  %f8, [ %fp + -32 ]
     648:	40 00 03 78 	call  1428 <__GI_fabs>
     64c:	d0 1f bf e0 	ldd  [ %fp + -32 ], %o0
     650:	03 00 00 20 	sethi  %hi(0x8000), %g1
     654:	82 18 7f 38 	xor  %g1, -200, %g1
     658:	82 05 c0 01 	add  %l7, %g1, %g1
     65c:	d1 18 40 00 	ldd  [ %g1 ], %f8
     660:	03 00 00 20 	sethi  %hi(0x8000), %g1
     664:	91 a0 09 48 	fmuld  %f0, %f8, %f8
     668:	82 18 7f 00 	xor  %g1, -256, %g1
     66c:	82 05 c0 01 	add  %l7, %g1, %g1
     670:	d5 18 40 00 	ldd  [ %g1 ], %f10
     674:	91 a2 08 4a 	faddd  %f8, %f10, %f8
     678:	03 00 00 20 	sethi  %hi(0x8000), %g1
     67c:	95 a0 1a 48 	fdtoi  %f8, %f10
     680:	82 18 7f 18 	xor  %g1, -232, %g1
     684:	d5 27 bf dc 	st  %f10, [ %fp + -36 ]
     688:	82 05 c0 01 	add  %l7, %g1, %g1
     68c:	95 a0 19 0a 	fitod  %f10, %f10
     690:	d1 18 40 00 	ldd  [ %g1 ], %f8
     694:	91 a2 89 48 	fmuld  %f10, %f8, %f8
     698:	f0 07 bf dc 	ld  [ %fp + -36 ], %i0
     69c:	81 a0 08 c8 	fsubd  %f0, %f8, %f0
     6a0:	03 00 00 20 	sethi  %hi(0x8000), %g1
     6a4:	80 a6 20 1f 	cmp  %i0, 0x1f
     6a8:	82 18 7f 20 	xor  %g1, -224, %g1
     6ac:	82 05 c0 01 	add  %l7, %g1, %g1
     6b0:	d1 18 40 00 	ldd  [ %g1 ], %f8
     6b4:	91 a2 89 48 	fmuld  %f10, %f8, %f8
     6b8:	14 80 00 0d 	bg  6ec <__ieee754_rem_pio2+0x1fc>
     6bc:	99 a0 08 c8 	fsubd  %f0, %f8, %f12
     6c0:	03 00 00 20 	sethi  %hi(0x8000), %g1
     6c4:	84 06 3f ff 	add  %i0, -1, %g2
     6c8:	82 18 7d 10 	xor  %g1, -752, %g1
     6cc:	85 28 a0 02 	sll  %g2, 2, %g2
     6d0:	82 05 c0 01 	add  %l7, %g1, %g1
     6d4:	c2 00 40 02 	ld  [ %g1 + %g2 ], %g1
     6d8:	80 a7 00 01 	cmp  %i4, %g1
     6dc:	22 80 00 05 	be,a   6f0 <__ieee754_rem_pio2+0x200>
     6e0:	d9 27 bf dc 	st  %f12, [ %fp + -36 ]
     6e4:	10 80 00 35 	b  7b8 <__ieee754_rem_pio2+0x2c8>
     6e8:	d9 3e 80 00 	std  %f12, [ %i2 ]
     6ec:	d9 27 bf dc 	st  %f12, [ %fp + -36 ]
     6f0:	d9 3e 80 00 	std  %f12, [ %i2 ]
     6f4:	b9 3f 20 14 	sra  %i4, 0x14, %i4
     6f8:	c4 07 bf dc 	ld  [ %fp + -36 ], %g2
     6fc:	83 30 a0 14 	srl  %g2, 0x14, %g1
     700:	82 08 67 ff 	and  %g1, 0x7ff, %g1
     704:	82 27 00 01 	sub  %i4, %g1, %g1
     708:	80 a0 60 10 	cmp  %g1, 0x10
     70c:	24 80 00 2c 	ble,a   7bc <__ieee754_rem_pio2+0x2cc>
     710:	d5 1e 80 00 	ldd  [ %i2 ], %f10
     714:	03 00 00 20 	sethi  %hi(0x8000), %g1
     718:	82 18 7f 28 	xor  %g1, -216, %g1
     71c:	82 05 c0 01 	add  %l7, %g1, %g1
     720:	d1 18 40 00 	ldd  [ %g1 ], %f8
     724:	91 a2 89 48 	fmuld  %f10, %f8, %f8
     728:	99 a0 08 c8 	fsubd  %f0, %f8, %f12
     72c:	81 a0 08 cc 	fsubd  %f0, %f12, %f0
     730:	03 00 00 20 	sethi  %hi(0x8000), %g1
     734:	91 a0 08 c8 	fsubd  %f0, %f8, %f8
     738:	82 18 7f 30 	xor  %g1, -208, %g1
     73c:	82 05 c0 01 	add  %l7, %g1, %g1
     740:	c1 18 40 00 	ldd  [ %g1 ], %f0
     744:	81 a2 89 40 	fmuld  %f10, %f0, %f0
     748:	91 a0 08 c8 	fsubd  %f0, %f8, %f8
     74c:	9d a3 08 c8 	fsubd  %f12, %f8, %f14
     750:	dd 27 bf dc 	st  %f14, [ %fp + -36 ]
     754:	dd 3e 80 00 	std  %f14, [ %i2 ]
     758:	c4 07 bf dc 	ld  [ %fp + -36 ], %g2
     75c:	81 a0 00 2c 	fmovs  %f12, %f0
     760:	83 30 a0 14 	srl  %g2, 0x14, %g1
     764:	82 08 67 ff 	and  %g1, 0x7ff, %g1
     768:	b8 27 00 01 	sub  %i4, %g1, %i4
     76c:	80 a7 20 31 	cmp  %i4, 0x31
     770:	04 80 00 12 	ble  7b8 <__ieee754_rem_pio2+0x2c8>
     774:	83 a0 00 2d 	fmovs  %f13, %f1
     778:	03 00 00 20 	sethi  %hi(0x8000), %g1
     77c:	82 18 7f 40 	xor  %g1, -192, %g1
     780:	82 05 c0 01 	add  %l7, %g1, %g1
     784:	d1 18 40 00 	ldd  [ %g1 ], %f8
     788:	91 a2 89 48 	fmuld  %f10, %f8, %f8
     78c:	81 a0 08 c8 	fsubd  %f0, %f8, %f0
     790:	99 a3 08 c0 	fsubd  %f12, %f0, %f12
     794:	03 00 00 20 	sethi  %hi(0x8000), %g1
     798:	91 a3 08 c8 	fsubd  %f12, %f8, %f8
     79c:	82 18 7f 48 	xor  %g1, -184, %g1
     7a0:	82 05 c0 01 	add  %l7, %g1, %g1
     7a4:	d9 18 40 00 	ldd  [ %g1 ], %f12
     7a8:	95 a2 89 4c 	fmuld  %f10, %f12, %f10
     7ac:	91 a2 88 c8 	fsubd  %f10, %f8, %f8
     7b0:	95 a0 08 c8 	fsubd  %f0, %f8, %f10
     7b4:	d5 3e 80 00 	std  %f10, [ %i2 ]
     7b8:	d5 1e 80 00 	ldd  [ %i2 ], %f10
     7bc:	81 a0 08 ca 	fsubd  %f0, %f10, %f0
     7c0:	91 a0 08 c8 	fsubd  %f0, %f8, %f8
     7c4:	80 a7 60 00 	cmp  %i5, 0
     7c8:	16 80 00 41 	bge  8cc <__ieee754_rem_pio2+0x3dc>
     7cc:	d1 3e a0 08 	std  %f8, [ %i2 + 8 ]
     7d0:	95 a0 00 aa 	fnegs  %f10, %f10
     7d4:	10 80 00 3b 	b  8c0 <__ieee754_rem_pio2+0x3d0>
     7d8:	d5 3e 80 00 	std  %f10, [ %i2 ]
     7dc:	82 10 63 ff 	or  %g1, 0x3ff, %g1
     7e0:	80 a7 00 01 	cmp  %i4, %g1
     7e4:	04 80 00 07 	ble  800 <__ieee754_rem_pio2+0x310>
     7e8:	03 00 00 20 	sethi  %hi(0x8000), %g1
     7ec:	91 a2 08 c8 	fsubd  %f8, %f8, %f8
     7f0:	d1 3e a0 08 	std  %f8, [ %i2 + 8 ]
     7f4:	d1 3e 80 00 	std  %f8, [ %i2 ]
     7f8:	81 c7 e0 08 	ret 
     7fc:	91 e8 20 00 	restore  %g0, 0, %o0
     800:	82 18 7f 10 	xor  %g1, -240, %g1
     804:	9b a0 00 29 	fmovs  %f9, %f13
     808:	84 05 c0 01 	add  %l7, %g1, %g2
     80c:	95 3f 20 14 	sra  %i4, 0x14, %o2
     810:	94 02 bb ea 	add  %o2, -1046, %o2
     814:	83 2a a0 14 	sll  %o2, 0x14, %g1
     818:	82 27 00 01 	sub  %i4, %g1, %g1
     81c:	c2 27 bf dc 	st  %g1, [ %fp + -36 ]
     820:	d9 07 bf dc 	ld  [ %fp + -36 ], %f12
     824:	91 a0 1a 4c 	fdtoi  %f12, %f8
     828:	91 a0 19 08 	fitod  %f8, %f8
     82c:	03 00 00 20 	sethi  %hi(0x8000), %g1
     830:	99 a3 08 c8 	fsubd  %f12, %f8, %f12
     834:	d1 3f bf e8 	std  %f8, [ %fp + -24 ]
     838:	82 18 7f 50 	xor  %g1, -176, %g1
     83c:	82 05 c0 01 	add  %l7, %g1, %g1
     840:	d1 18 40 00 	ldd  [ %g1 ], %f8
     844:	99 a3 09 48 	fmuld  %f12, %f8, %f12
     848:	95 a0 1a 4c 	fdtoi  %f12, %f10
     84c:	95 a0 19 0a 	fitod  %f10, %f10
     850:	d5 3f bf f0 	std  %f10, [ %fp + -16 ]
     854:	95 a3 08 ca 	fsubd  %f12, %f10, %f10
     858:	91 a2 89 48 	fmuld  %f10, %f8, %f8
     85c:	96 10 20 03 	mov  3, %o3
     860:	d1 3f bf f8 	std  %f8, [ %fp + -8 ]
     864:	d1 18 80 00 	ldd  [ %g2 ], %f8
     868:	82 02 ff ff 	add  %o3, -1, %g1
     86c:	85 28 60 03 	sll  %g1, 3, %g2
     870:	84 07 80 02 	add  %fp, %g2, %g2
     874:	d5 18 bf e8 	ldd  [ %g2 + -24 ], %f10
     878:	81 aa 8a 48 	fcmpd  %f10, %f8
     87c:	01 00 00 00 	nop 
     880:	33 bf ff fa 	fbe,a   868 <__ieee754_rem_pio2+0x378>
     884:	96 10 00 01 	mov  %g1, %o3
     888:	90 07 bf e8 	add  %fp, -24, %o0
     88c:	92 10 00 1a 	mov  %i2, %o1
     890:	98 10 20 02 	mov  2, %o4
     894:	1b 00 00 20 	sethi  %hi(0x8000), %o5
     898:	9a 1b 7d 90 	xor  %o5, -624, %o5
     89c:	40 00 00 7a 	call  a84 <__kernel_rem_pio2>
     8a0:	9a 05 c0 0d 	add  %l7, %o5, %o5
     8a4:	80 a7 60 00 	cmp  %i5, 0
     8a8:	16 80 00 09 	bge  8cc <__ieee754_rem_pio2+0x3dc>
     8ac:	b0 10 00 08 	mov  %o0, %i0
     8b0:	d1 1e 80 00 	ldd  [ %i2 ], %f8
     8b4:	91 a0 00 a8 	fnegs  %f8, %f8
     8b8:	d1 3e 80 00 	std  %f8, [ %i2 ]
     8bc:	d1 1e a0 08 	ldd  [ %i2 + 8 ], %f8
     8c0:	91 a0 00 a8 	fnegs  %f8, %f8
     8c4:	b0 20 00 18 	neg  %i0
     8c8:	d1 3e a0 08 	std  %f8, [ %i2 + 8 ]
     8cc:	81 c7 e0 08 	ret 
     8d0:	81 e8 00 00 	restore 

000008d4 <__kernel_cos>:
     8d4:	9d e3 bf 90 	save  %sp, -112, %sp
     8d8:	f0 3f bf f8 	std  %i0, [ %fp + -8 ]
     8dc:	d5 1f bf f8 	ldd  [ %fp + -8 ], %f10
     8e0:	f4 3f bf f8 	std  %i2, [ %fp + -8 ]
     8e4:	2f 10 00 1e 	sethi  %hi(0x40007800), %l7
     8e8:	40 00 0d cb 	call  4014 <__sparc_get_pc_thunk.l7>
     8ec:	ae 05 e2 08 	add  %l7, 0x208, %l7	! 40007a08 <data+0x3718>
     8f0:	03 20 00 00 	sethi  %hi(0x80000000), %g1
     8f4:	05 0f 8f ff 	sethi  %hi(0x3e3ffc00), %g2
     8f8:	82 2e 00 01 	andn  %i0, %g1, %g1
     8fc:	84 10 a3 ff 	or  %g2, 0x3ff, %g2
     900:	80 a0 40 02 	cmp  %g1, %g2
     904:	14 80 00 08 	bg  924 <__kernel_cos+0x50>
     908:	d9 1f bf f8 	ldd  [ %fp + -8 ], %f12
     90c:	91 a0 1a 4a 	fdtoi  %f10, %f8
     910:	d1 27 bf f4 	st  %f8, [ %fp + -12 ]
     914:	c4 07 bf f4 	ld  [ %fp + -12 ], %g2
     918:	80 a0 a0 00 	cmp  %g2, 0
     91c:	22 80 00 55 	be,a   a70 <__kernel_cos+0x19c>
     920:	03 00 00 20 	sethi  %hi(0x8000), %g1
     924:	05 00 00 20 	sethi  %hi(0x8000), %g2
     928:	84 18 bf 68 	xor  %g2, -152, %g2
     92c:	84 05 c0 02 	add  %l7, %g2, %g2
     930:	dd 18 80 00 	ldd  [ %g2 ], %f14
     934:	05 00 00 20 	sethi  %hi(0x8000), %g2
     938:	84 18 bf 70 	xor  %g2, -144, %g2
     93c:	84 05 c0 02 	add  %l7, %g2, %g2
     940:	e1 18 80 00 	ldd  [ %g2 ], %f16
     944:	05 00 00 20 	sethi  %hi(0x8000), %g2
     948:	84 18 bf 78 	xor  %g2, -136, %g2
     94c:	84 05 c0 02 	add  %l7, %g2, %g2
     950:	91 a2 89 4a 	fmuld  %f10, %f10, %f8
     954:	9d a2 09 4e 	fmuld  %f8, %f14, %f14
     958:	9d a3 88 50 	faddd  %f14, %f16, %f14
     95c:	e1 18 80 00 	ldd  [ %g2 ], %f16
     960:	05 00 00 20 	sethi  %hi(0x8000), %g2
     964:	84 18 bf 80 	xor  %g2, -128, %g2
     968:	84 05 c0 02 	add  %l7, %g2, %g2
     96c:	9d a2 09 4e 	fmuld  %f8, %f14, %f14
     970:	9d a3 88 d0 	fsubd  %f14, %f16, %f14
     974:	e1 18 80 00 	ldd  [ %g2 ], %f16
     978:	05 00 00 20 	sethi  %hi(0x8000), %g2
     97c:	84 18 bf 88 	xor  %g2, -120, %g2
     980:	84 05 c0 02 	add  %l7, %g2, %g2
     984:	9d a2 09 4e 	fmuld  %f8, %f14, %f14
     988:	9d a3 88 50 	faddd  %f14, %f16, %f14
     98c:	e1 18 80 00 	ldd  [ %g2 ], %f16
     990:	05 00 00 20 	sethi  %hi(0x8000), %g2
     994:	84 18 bf 90 	xor  %g2, -112, %g2
     998:	84 05 c0 02 	add  %l7, %g2, %g2
     99c:	9d a2 09 4e 	fmuld  %f8, %f14, %f14
     9a0:	95 a2 89 4c 	fmuld  %f10, %f12, %f10
     9a4:	9d a3 88 d0 	fsubd  %f14, %f16, %f14
     9a8:	e1 18 80 00 	ldd  [ %g2 ], %f16
     9ac:	9d a2 09 4e 	fmuld  %f8, %f14, %f14
     9b0:	05 0f f4 cc 	sethi  %hi(0x3fd33000), %g2
     9b4:	9d a3 88 50 	faddd  %f14, %f16, %f14
     9b8:	84 10 a3 32 	or  %g2, 0x332, %g2
     9bc:	9d a2 09 4e 	fmuld  %f8, %f14, %f14
     9c0:	80 a0 40 02 	cmp  %g1, %g2
     9c4:	14 80 00 0e 	bg  9fc <__kernel_cos+0x128>
     9c8:	9d a2 09 4e 	fmuld  %f8, %f14, %f14
     9cc:	03 00 00 20 	sethi  %hi(0x8000), %g1
     9d0:	82 18 7f 00 	xor  %g1, -256, %g1
     9d4:	82 05 c0 01 	add  %l7, %g1, %g1
     9d8:	c1 18 40 00 	ldd  [ %g1 ], %f0
     9dc:	95 a3 88 ca 	fsubd  %f14, %f10, %f10
     9e0:	91 a2 09 40 	fmuld  %f8, %f0, %f8
     9e4:	03 00 00 20 	sethi  %hi(0x8000), %g1
     9e8:	95 a2 08 ca 	fsubd  %f8, %f10, %f10
     9ec:	82 18 7f 60 	xor  %g1, -160, %g1
     9f0:	82 05 c0 01 	add  %l7, %g1, %g1
     9f4:	10 80 00 1c 	b  a64 <__kernel_cos+0x190>
     9f8:	c1 18 40 00 	ldd  [ %g1 ], %f0
     9fc:	05 0f fa 40 	sethi  %hi(0x3fe90000), %g2
     a00:	80 a0 40 02 	cmp  %g1, %g2
     a04:	34 80 00 08 	bg,a   a24 <__kernel_cos+0x150>
     a08:	03 00 00 20 	sethi  %hi(0x8000), %g1
     a0c:	09 3f f8 00 	sethi  %hi(0xffe00000), %g4
     a10:	86 10 20 00 	clr  %g3
     a14:	84 00 40 04 	add  %g1, %g4, %g2
     a18:	c4 3f bf f8 	std  %g2, [ %fp + -8 ]
     a1c:	10 80 00 05 	b  a30 <__kernel_cos+0x15c>
     a20:	d9 1f bf f8 	ldd  [ %fp + -8 ], %f12
     a24:	82 18 7f 58 	xor  %g1, -168, %g1
     a28:	82 05 c0 01 	add  %l7, %g1, %g1
     a2c:	d9 18 40 00 	ldd  [ %g1 ], %f12
     a30:	03 00 00 20 	sethi  %hi(0x8000), %g1
     a34:	82 18 7f 60 	xor  %g1, -160, %g1
     a38:	82 05 c0 01 	add  %l7, %g1, %g1
     a3c:	95 a3 88 ca 	fsubd  %f14, %f10, %f10
     a40:	c1 18 40 00 	ldd  [ %g1 ], %f0
     a44:	03 00 00 20 	sethi  %hi(0x8000), %g1
     a48:	81 a0 08 cc 	fsubd  %f0, %f12, %f0
     a4c:	82 18 7f 00 	xor  %g1, -256, %g1
     a50:	82 05 c0 01 	add  %l7, %g1, %g1
     a54:	e1 18 40 00 	ldd  [ %g1 ], %f16
     a58:	91 a2 09 50 	fmuld  %f8, %f16, %f8
     a5c:	99 a2 08 cc 	fsubd  %f8, %f12, %f12
     a60:	95 a3 08 ca 	fsubd  %f12, %f10, %f10
     a64:	81 a0 08 ca 	fsubd  %f0, %f10, %f0
     a68:	81 c7 e0 08 	ret 
     a6c:	81 e8 00 00 	restore 
     a70:	82 18 7f 60 	xor  %g1, -160, %g1
     a74:	82 05 c0 01 	add  %l7, %g1, %g1
     a78:	c1 18 40 00 	ldd  [ %g1 ], %f0
     a7c:	81 c7 e0 08 	ret 
     a80:	81 e8 00 00 	restore 

00000a84 <__kernel_rem_pio2>:
     a84:	9d e3 bd 40 	save  %sp, -704, %sp
     a88:	2f 10 00 1e 	sethi  %hi(0x40007800), %l7
     a8c:	40 00 0d 62 	call  4014 <__sparc_get_pc_thunk.l7>
     a90:	ae 05 e0 64 	add  %l7, 0x64, %l7	! 40007864 <data+0x3574>
     a94:	03 00 00 20 	sethi  %hi(0x8000), %g1
     a98:	82 18 7e 98 	xor  %g1, -360, %g1
     a9c:	82 05 c0 01 	add  %l7, %g1, %g1
     aa0:	85 2f 20 02 	sll  %i4, 2, %g2
     aa4:	e2 00 40 02 	ld  [ %g1 + %g2 ], %l1
     aa8:	82 06 bf fd 	add  %i2, -3, %g1
     aac:	87 38 60 1f 	sra  %g1, 0x1f, %g3
     ab0:	81 80 e0 00 	mov  %g3, %y
     ab4:	01 00 00 00 	nop 
     ab8:	01 00 00 00 	nop 
     abc:	01 00 00 00 	nop 
     ac0:	82 78 60 18 	sdiv  %g1, 0x18, %g1
     ac4:	88 38 00 01 	xnor  %g0, %g1, %g4
     ac8:	89 39 20 1f 	sra  %g4, 0x1f, %g4
     acc:	88 08 40 04 	and  %g1, %g4, %g4
     ad0:	82 38 00 04 	xnor  %g0, %g4, %g1
     ad4:	86 00 40 01 	add  %g1, %g1, %g3
     ad8:	82 00 c0 01 	add  %g3, %g1, %g1
     adc:	83 28 60 03 	sll  %g1, 3, %g1
     ae0:	84 06 ff ff 	add  %i3, -1, %g2
     ae4:	b4 06 80 01 	add  %i2, %g1, %i2
     ae8:	1f 00 00 20 	sethi  %hi(0x8000), %o7
     aec:	9e 1b ff 10 	xor  %o7, -240, %o7
     af0:	86 21 00 02 	sub  %g4, %g2, %g3
     af4:	b6 00 80 11 	add  %g2, %l1, %i3
     af8:	82 10 20 00 	clr  %g1
     afc:	10 80 00 0d 	b  b30 <__kernel_rem_pio2+0xac>
     b00:	9e 05 c0 0f 	add  %l7, %o7, %o7
     b04:	06 80 00 05 	bl  b18 <__kernel_rem_pio2+0x94>
     b08:	9b 28 e0 02 	sll  %g3, 2, %o5
     b0c:	d1 07 40 0d 	ld  [ %i5 + %o5 ], %f8
     b10:	10 80 00 03 	b  b1c <__kernel_rem_pio2+0x98>
     b14:	91 a0 19 08 	fitod  %f8, %f8
     b18:	d1 1b c0 00 	ldd  [ %o7 ], %f8
     b1c:	9b 28 60 03 	sll  %g1, 3, %o5
     b20:	86 00 e0 01 	inc  %g3
     b24:	9a 07 80 0d 	add  %fp, %o5, %o5
     b28:	82 00 60 01 	inc  %g1
     b2c:	d1 3b 7e 20 	std  %f8, [ %o5 + -480 ]
     b30:	80 a0 40 1b 	cmp  %g1, %i3
     b34:	04 bf ff f4 	ble  b04 <__kernel_rem_pio2+0x80>
     b38:	80 a0 e0 00 	cmp  %g3, 0
     b3c:	1f 00 00 20 	sethi  %hi(0x8000), %o7
     b40:	82 10 20 00 	clr  %g1
     b44:	9e 1b ff 10 	xor  %o7, -240, %o7
     b48:	10 80 00 11 	b  b8c <__kernel_rem_pio2+0x108>
     b4c:	9e 05 c0 0f 	add  %l7, %o7, %o7
     b50:	9a 26 c0 03 	sub  %i3, %g3, %o5
     b54:	d9 1e 00 0c 	ldd  [ %i0 + %o4 ], %f12
     b58:	9b 2b 60 03 	sll  %o5, 3, %o5
     b5c:	86 00 e0 01 	inc  %g3
     b60:	9a 07 80 0d 	add  %fp, %o5, %o5
     b64:	d5 1b 7e 20 	ldd  [ %o5 + -480 ], %f10
     b68:	95 a3 09 4a 	fmuld  %f12, %f10, %f10
     b6c:	91 a2 08 4a 	faddd  %f8, %f10, %f8
     b70:	80 a0 c0 02 	cmp  %g3, %g2
     b74:	04 bf ff f7 	ble  b50 <__kernel_rem_pio2+0xcc>
     b78:	99 28 e0 03 	sll  %g3, 3, %o4
     b7c:	87 28 60 03 	sll  %g1, 3, %g3
     b80:	82 00 60 01 	inc  %g1
     b84:	86 07 80 03 	add  %fp, %g3, %g3
     b88:	d1 38 ff 60 	std  %f8, [ %g3 + -160 ]
     b8c:	80 a0 40 11 	cmp  %g1, %l1
     b90:	14 80 00 06 	bg  ba8 <__kernel_rem_pio2+0x124>
     b94:	29 00 00 20 	sethi  %hi(0x8000), %l4
     b98:	d1 1b c0 00 	ldd  [ %o7 ], %f8
     b9c:	86 10 20 00 	clr  %g3
     ba0:	10 bf ff f4 	b  b70 <__kernel_rem_pio2+0xec>
     ba4:	b6 00 80 01 	add  %g2, %g1, %i3
     ba8:	2b 00 00 20 	sethi  %hi(0x8000), %l5
     bac:	a8 1d 3f 98 	xor  %l4, -104, %l4
     bb0:	aa 1d 7f 50 	xor  %l5, -176, %l5
     bb4:	a8 05 c0 14 	add  %l7, %l4, %l4
     bb8:	2d 00 00 20 	sethi  %hi(0x8000), %l6
     bbc:	37 00 00 20 	sethi  %hi(0x8000), %i3
     bc0:	ac 1d bf a0 	xor  %l6, -96, %l6
     bc4:	b6 1e ff a8 	xor  %i3, -88, %i3
     bc8:	27 00 00 20 	sethi  %hi(0x8000), %l3
     bcc:	a0 10 00 11 	mov  %l1, %l0
     bd0:	a6 1c ff 10 	xor  %l3, -240, %l3
     bd4:	e8 27 bd cc 	st  %l4, [ %fp + -564 ]
     bd8:	aa 05 c0 15 	add  %l7, %l5, %l5
     bdc:	ac 05 c0 16 	add  %l7, %l6, %l6
     be0:	b6 05 c0 1b 	add  %l7, %i3, %i3
     be4:	a6 05 c0 13 	add  %l7, %l3, %l3
     be8:	83 2c 20 03 	sll  %l0, 3, %g1
     bec:	82 07 80 01 	add  %fp, %g1, %g1
     bf0:	86 10 20 00 	clr  %g3
     bf4:	d1 18 7f 60 	ldd  [ %g1 + -160 ], %f8
     bf8:	10 80 00 13 	b  c44 <__kernel_rem_pio2+0x1c0>
     bfc:	82 10 00 10 	mov  %l0, %g1
     c00:	d5 1b c0 00 	ldd  [ %o7 ], %f10
     c04:	95 a2 09 4a 	fmuld  %f8, %f10, %f10
     c08:	9f 28 e0 02 	sll  %g3, 2, %o7
     c0c:	95 a0 1a 4a 	fdtoi  %f10, %f10
     c10:	9e 07 80 0f 	add  %fp, %o7, %o7
     c14:	95 a0 19 0a 	fitod  %f10, %f10
     c18:	d9 1d 40 00 	ldd  [ %l5 ], %f12
     c1c:	99 a2 89 4c 	fmuld  %f10, %f12, %f12
     c20:	91 a2 08 cc 	fsubd  %f8, %f12, %f8
     c24:	91 a0 1a 48 	fdtoi  %f8, %f8
     c28:	82 00 7f ff 	add  %g1, -1, %g1
     c2c:	d1 23 fd d0 	st  %f8, [ %o7 + -560 ]
     c30:	86 00 e0 01 	inc  %g3
     c34:	9f 28 60 03 	sll  %g1, 3, %o7
     c38:	9e 07 80 0f 	add  %fp, %o7, %o7
     c3c:	d1 1b ff 60 	ldd  [ %o7 + -160 ], %f8
     c40:	91 a2 88 48 	faddd  %f10, %f8, %f8
     c44:	80 a0 60 00 	cmp  %g1, 0
     c48:	14 bf ff ee 	bg  c00 <__kernel_rem_pio2+0x17c>
     c4c:	de 07 bd cc 	ld  [ %fp + -564 ], %o7
     c50:	d1 3f bd a8 	std  %f8, [ %fp + -600 ]
     c54:	c4 27 bd c8 	st  %g2, [ %fp + -568 ]
     c58:	c8 27 bd c4 	st  %g4, [ %fp + -572 ]
     c5c:	d0 1f bd a8 	ldd  [ %fp + -600 ], %o0
     c60:	40 00 02 70 	call  1620 <__GI_scalbln>
     c64:	94 10 00 1a 	mov  %i2, %o2
     c68:	d1 1d 80 00 	ldd  [ %l6 ], %f8
     c6c:	95 a0 00 20 	fmovs  %f0, %f10
     c70:	97 a0 00 21 	fmovs  %f1, %f11
     c74:	99 a2 89 48 	fmuld  %f10, %f8, %f12
     c78:	d5 3f bd b0 	std  %f10, [ %fp + -592 ]
     c7c:	d9 3f bd a8 	std  %f12, [ %fp + -600 ]
     c80:	40 00 01 f3 	call  144c <__GI_floor>
     c84:	d0 1f bd a8 	ldd  [ %fp + -600 ], %o0
     c88:	d1 1e c0 00 	ldd  [ %i3 ], %f8
     c8c:	d5 1f bd b0 	ldd  [ %fp + -592 ], %f10
     c90:	81 a0 09 48 	fmuld  %f0, %f8, %f0
     c94:	95 a2 88 c0 	fsubd  %f10, %f0, %f10
     c98:	9b a0 1a 4a 	fdtoi  %f10, %f13
     c9c:	db 27 bd a4 	st  %f13, [ %fp + -604 ]
     ca0:	91 a0 19 0d 	fitod  %f13, %f8
     ca4:	e4 07 bd a4 	ld  [ %fp + -604 ], %l2
     ca8:	91 a2 88 c8 	fsubd  %f10, %f8, %f8
     cac:	80 a6 a0 00 	cmp  %i2, 0
     cb0:	c4 07 bd c8 	ld  [ %fp + -568 ], %g2
     cb4:	04 80 00 11 	ble  cf8 <__kernel_rem_pio2+0x274>
     cb8:	c8 07 bd c4 	ld  [ %fp + -572 ], %g4
     cbc:	9e 04 3f ff 	add  %l0, -1, %o7
     cc0:	86 10 20 18 	mov  0x18, %g3
     cc4:	9f 2b e0 02 	sll  %o7, 2, %o7
     cc8:	86 20 c0 1a 	sub  %g3, %i2, %g3
     ccc:	9e 07 80 0f 	add  %fp, %o7, %o7
     cd0:	da 03 fd d0 	ld  [ %o7 + -560 ], %o5
     cd4:	83 3b 40 03 	sra  %o5, %g3, %g1
     cd8:	87 28 40 03 	sll  %g1, %g3, %g3
     cdc:	a4 04 80 01 	add  %l2, %g1, %l2
     ce0:	86 23 40 03 	sub  %o5, %g3, %g3
     ce4:	82 10 20 17 	mov  0x17, %g1
     ce8:	c6 23 fd d0 	st  %g3, [ %o7 + -560 ]
     cec:	82 20 40 1a 	sub  %g1, %i2, %g1
     cf0:	10 80 00 13 	b  d3c <__kernel_rem_pio2+0x2b8>
     cf4:	a9 38 c0 01 	sra  %g3, %g1, %l4
     cf8:	12 80 00 08 	bne  d18 <__kernel_rem_pio2+0x294>
     cfc:	03 00 00 20 	sethi  %hi(0x8000), %g1
     d00:	82 04 3f ff 	add  %l0, -1, %g1
     d04:	83 28 60 02 	sll  %g1, 2, %g1
     d08:	82 07 80 01 	add  %fp, %g1, %g1
     d0c:	c2 00 7d d0 	ld  [ %g1 + -560 ], %g1
     d10:	10 80 00 0b 	b  d3c <__kernel_rem_pio2+0x2b8>
     d14:	a9 38 60 17 	sra  %g1, 0x17, %l4
     d18:	82 18 7f 00 	xor  %g1, -256, %g1
     d1c:	82 05 c0 01 	add  %l7, %g1, %g1
     d20:	d5 18 40 00 	ldd  [ %g1 ], %f10
     d24:	81 aa 0a ca 	fcmped  %f8, %f10
     d28:	01 00 00 00 	nop 
     d2c:	07 80 00 49 	fbul  e50 <__kernel_rem_pio2+0x3cc>
     d30:	a8 10 20 00 	clr  %l4	! 0 <_start>
     d34:	10 80 00 07 	b  d50 <__kernel_rem_pio2+0x2cc>
     d38:	a8 10 20 02 	mov  2, %l4
     d3c:	80 a5 20 00 	cmp  %l4, 0
     d40:	14 80 00 05 	bg  d54 <__kernel_rem_pio2+0x2d0>
     d44:	17 00 3f ff 	sethi  %hi(0xfffc00), %o3
     d48:	10 80 00 43 	b  e54 <__kernel_rem_pio2+0x3d0>
     d4c:	d5 1c c0 00 	ldd  [ %l3 ], %f10
     d50:	17 00 3f ff 	sethi  %hi(0xfffc00), %o3
     d54:	a4 04 a0 01 	inc  %l2
     d58:	9e 10 20 00 	clr  %o7
     d5c:	86 10 20 00 	clr  %g3
     d60:	96 12 e3 ff 	or  %o3, 0x3ff, %o3
     d64:	10 80 00 0f 	b  da0 <__kernel_rem_pio2+0x31c>
     d68:	15 00 40 00 	sethi  %hi(0x1000000), %o2
     d6c:	80 a0 e0 00 	cmp  %g3, 0
     d70:	9a 07 80 0d 	add  %fp, %o5, %o5
     d74:	12 80 00 07 	bne  d90 <__kernel_rem_pio2+0x30c>
     d78:	d8 03 7d d0 	ld  [ %o5 + -560 ], %o4
     d7c:	80 a3 20 00 	cmp  %o4, 0
     d80:	22 80 00 08 	be,a   da0 <__kernel_rem_pio2+0x31c>
     d84:	9e 03 e0 01 	inc  %o7
     d88:	10 80 00 03 	b  d94 <__kernel_rem_pio2+0x310>
     d8c:	98 22 80 0c 	sub  %o2, %o4, %o4
     d90:	98 22 c0 0c 	sub  %o3, %o4, %o4
     d94:	d8 23 7d d0 	st  %o4, [ %o5 + -560 ]
     d98:	86 10 20 01 	mov  1, %g3
     d9c:	9e 03 e0 01 	inc  %o7
     da0:	80 a3 c0 10 	cmp  %o7, %l0
     da4:	06 bf ff f2 	bl  d6c <__kernel_rem_pio2+0x2e8>
     da8:	9b 2b e0 02 	sll  %o7, 2, %o5
     dac:	80 a6 a0 00 	cmp  %i2, 0
     db0:	04 80 00 14 	ble  e00 <__kernel_rem_pio2+0x37c>
     db4:	80 a6 a0 01 	cmp  %i2, 1
     db8:	02 80 00 06 	be  dd0 <__kernel_rem_pio2+0x34c>
     dbc:	80 a6 a0 02 	cmp  %i2, 2
     dc0:	12 80 00 11 	bne  e04 <__kernel_rem_pio2+0x380>
     dc4:	80 a5 20 02 	cmp  %l4, 2
     dc8:	10 80 00 08 	b  de8 <__kernel_rem_pio2+0x364>
     dcc:	9e 04 3f ff 	add  %l0, -1, %o7
     dd0:	9e 04 3f ff 	add  %l0, -1, %o7
     dd4:	19 3f e0 00 	sethi  %hi(0xff800000), %o4
     dd8:	9f 2b e0 02 	sll  %o7, 2, %o7
     ddc:	9e 07 80 0f 	add  %fp, %o7, %o7
     de0:	10 80 00 06 	b  df8 <__kernel_rem_pio2+0x374>
     de4:	da 03 fd d0 	ld  [ %o7 + -560 ], %o5
     de8:	19 3f f0 00 	sethi  %hi(0xffc00000), %o4
     dec:	9f 2b e0 02 	sll  %o7, 2, %o7
     df0:	9e 07 80 0f 	add  %fp, %o7, %o7
     df4:	da 03 fd d0 	ld  [ %o7 + -560 ], %o5
     df8:	9a 2b 40 0c 	andn  %o5, %o4, %o5
     dfc:	da 23 fd d0 	st  %o5, [ %o7 + -560 ]
     e00:	80 a5 20 02 	cmp  %l4, 2
     e04:	32 80 00 14 	bne,a   e54 <__kernel_rem_pio2+0x3d0>
     e08:	d5 1c c0 00 	ldd  [ %l3 ], %f10
     e0c:	1f 00 00 20 	sethi  %hi(0x8000), %o7
     e10:	80 a0 e0 00 	cmp  %g3, 0
     e14:	9e 1b ff 60 	xor  %o7, -160, %o7
     e18:	9e 05 c0 0f 	add  %l7, %o7, %o7
     e1c:	d5 1b c0 00 	ldd  [ %o7 ], %f10
     e20:	02 80 00 0c 	be  e50 <__kernel_rem_pio2+0x3cc>
     e24:	91 a2 88 c8 	fsubd  %f10, %f8, %f8
     e28:	c4 27 bd c8 	st  %g2, [ %fp + -568 ]
     e2c:	c8 27 bd c4 	st  %g4, [ %fp + -572 ]
     e30:	d1 3f bd b8 	std  %f8, [ %fp + -584 ]
     e34:	d0 1b c0 00 	ldd  [ %o7 ], %o0
     e38:	40 00 01 fa 	call  1620 <__GI_scalbln>
     e3c:	94 10 00 1a 	mov  %i2, %o2
     e40:	d1 1f bd b8 	ldd  [ %fp + -584 ], %f8
     e44:	c8 07 bd c4 	ld  [ %fp + -572 ], %g4
     e48:	91 a2 08 c0 	fsubd  %f8, %f0, %f8
     e4c:	c4 07 bd c8 	ld  [ %fp + -568 ], %g2
     e50:	d5 1c c0 00 	ldd  [ %l3 ], %f10
     e54:	81 aa 0a 4a 	fcmpd  %f8, %f10
     e58:	01 00 00 00 	nop 
     e5c:	03 80 00 38 	fbne  f3c <__kernel_rem_pio2+0x4b8>
     e60:	86 04 3f ff 	add  %l0, -1, %g3
     e64:	10 80 00 06 	b  e7c <__kernel_rem_pio2+0x3f8>
     e68:	9e 10 20 00 	clr  %o7
     e6c:	86 00 ff ff 	add  %g3, -1, %g3
     e70:	9a 07 80 0d 	add  %fp, %o5, %o5
     e74:	da 03 7d d0 	ld  [ %o5 + -560 ], %o5
     e78:	9e 13 c0 0d 	or  %o7, %o5, %o7
     e7c:	80 a0 c0 11 	cmp  %g3, %l1
     e80:	16 bf ff fb 	bge  e6c <__kernel_rem_pio2+0x3e8>
     e84:	9b 28 e0 02 	sll  %g3, 2, %o5
     e88:	80 a3 e0 00 	cmp  %o7, 0
     e8c:	22 80 00 04 	be,a   e9c <__kernel_rem_pio2+0x418>
     e90:	86 10 20 01 	mov  1, %g3
     e94:	10 80 00 2b 	b  f40 <__kernel_rem_pio2+0x4bc>
     e98:	05 00 00 20 	sethi  %hi(0x8000), %g2
     e9c:	82 24 40 03 	sub  %l1, %g3, %g1
     ea0:	83 28 60 02 	sll  %g1, 2, %g1
     ea4:	82 07 80 01 	add  %fp, %g1, %g1
     ea8:	c2 00 7d d0 	ld  [ %g1 + -560 ], %g1
     eac:	80 a0 60 00 	cmp  %g1, 0
     eb0:	22 bf ff fb 	be,a   e9c <__kernel_rem_pio2+0x418>
     eb4:	86 00 e0 01 	inc  %g3
     eb8:	82 04 20 01 	add  %l0, 1, %g1
     ebc:	10 80 00 1b 	b  f28 <__kernel_rem_pio2+0x4a4>
     ec0:	a0 04 00 03 	add  %l0, %g3, %l0
     ec4:	9a 01 00 01 	add  %g4, %g1, %o5
     ec8:	87 2b e0 03 	sll  %o7, 3, %g3
     ecc:	9b 2b 60 02 	sll  %o5, 2, %o5
     ed0:	86 07 80 03 	add  %fp, %g3, %g3
     ed4:	d1 07 40 0d 	ld  [ %i5 + %o5 ], %f8
     ed8:	91 a0 19 08 	fitod  %f8, %f8
     edc:	d1 38 fe 20 	std  %f8, [ %g3 + -480 ]
     ee0:	d1 1c c0 00 	ldd  [ %l3 ], %f8
     ee4:	10 80 00 0a 	b  f0c <__kernel_rem_pio2+0x488>
     ee8:	86 10 20 00 	clr  %g3
     eec:	9a 23 c0 03 	sub  %o7, %g3, %o5
     ef0:	d9 1e 00 0c 	ldd  [ %i0 + %o4 ], %f12
     ef4:	9b 2b 60 03 	sll  %o5, 3, %o5
     ef8:	86 00 e0 01 	inc  %g3
     efc:	9a 07 80 0d 	add  %fp, %o5, %o5
     f00:	d5 1b 7e 20 	ldd  [ %o5 + -480 ], %f10
     f04:	95 a3 09 4a 	fmuld  %f12, %f10, %f10
     f08:	91 a2 08 4a 	faddd  %f8, %f10, %f8
     f0c:	80 a0 c0 02 	cmp  %g3, %g2
     f10:	04 bf ff f7 	ble  eec <__kernel_rem_pio2+0x468>
     f14:	99 28 e0 03 	sll  %g3, 3, %o4
     f18:	87 28 60 03 	sll  %g1, 3, %g3
     f1c:	82 00 60 01 	inc  %g1
     f20:	86 07 80 03 	add  %fp, %g3, %g3
     f24:	d1 38 ff 60 	std  %f8, [ %g3 + -160 ]
     f28:	80 a0 40 10 	cmp  %g1, %l0
     f2c:	24 bf ff e6 	ble,a   ec4 <__kernel_rem_pio2+0x440>
     f30:	9e 00 80 01 	add  %g2, %g1, %o7
     f34:	10 bf ff 2e 	b  bec <__kernel_rem_pio2+0x168>
     f38:	83 2c 20 03 	sll  %l0, 3, %g1
     f3c:	05 00 00 20 	sethi  %hi(0x8000), %g2
     f40:	84 18 bf 10 	xor  %g2, -240, %g2
     f44:	84 05 c0 02 	add  %l7, %g2, %g2
     f48:	d5 18 80 00 	ldd  [ %g2 ], %f10
     f4c:	81 aa 0a 4a 	fcmpd  %f8, %f10
     f50:	01 00 00 00 	nop 
     f54:	23 80 00 0b 	fbne,a   f80 <__kernel_rem_pio2+0x4fc>
     f58:	d1 3f bd a8 	std  %f8, [ %fp + -600 ]
     f5c:	a0 04 3f ff 	add  %l0, -1, %l0
     f60:	85 2c 20 02 	sll  %l0, 2, %g2
     f64:	84 07 80 02 	add  %fp, %g2, %g2
     f68:	c4 00 bd d0 	ld  [ %g2 + -560 ], %g2
     f6c:	80 a0 a0 00 	cmp  %g2, 0
     f70:	02 bf ff fb 	be  f5c <__kernel_rem_pio2+0x4d8>
     f74:	b4 06 bf e8 	add  %i2, -24, %i2
     f78:	10 80 00 26 	b  1010 <__kernel_rem_pio2+0x58c>
     f7c:	05 00 00 20 	sethi  %hi(0x8000), %g2
     f80:	94 20 00 1a 	neg  %i2, %o2
     f84:	40 00 01 a7 	call  1620 <__GI_scalbln>
     f88:	d0 1f bd a8 	ldd  [ %fp + -600 ], %o0
     f8c:	05 00 00 20 	sethi  %hi(0x8000), %g2
     f90:	84 18 bf 50 	xor  %g2, -176, %g2
     f94:	84 05 c0 02 	add  %l7, %g2, %g2
     f98:	d5 18 80 00 	ldd  [ %g2 ], %f10
     f9c:	81 a8 0a ca 	fcmped  %f0, %f10
     fa0:	01 00 00 00 	nop 
     fa4:	07 80 00 16 	fbul  ffc <__kernel_rem_pio2+0x578>
     fa8:	01 00 00 00 	nop 
     fac:	05 00 00 20 	sethi  %hi(0x8000), %g2
     fb0:	84 18 bf 98 	xor  %g2, -104, %g2
     fb4:	84 05 c0 02 	add  %l7, %g2, %g2
     fb8:	d1 18 80 00 	ldd  [ %g2 ], %f8
     fbc:	91 a0 09 48 	fmuld  %f0, %f8, %f8
     fc0:	85 2c 20 02 	sll  %l0, 2, %g2
     fc4:	91 a0 1a 48 	fdtoi  %f8, %f8
     fc8:	84 07 80 02 	add  %fp, %g2, %g2
     fcc:	91 a0 19 08 	fitod  %f8, %f8
     fd0:	95 a2 09 4a 	fmuld  %f8, %f10, %f10
     fd4:	81 a0 08 ca 	fsubd  %f0, %f10, %f0
     fd8:	81 a0 1a 40 	fdtoi  %f0, %f0
     fdc:	c1 20 bd d0 	st  %f0, [ %g2 + -560 ]
     fe0:	a0 04 20 01 	inc  %l0
     fe4:	91 a0 1a 48 	fdtoi  %f8, %f8
     fe8:	85 2c 20 02 	sll  %l0, 2, %g2
     fec:	b4 06 a0 18 	add  %i2, 0x18, %i2
     ff0:	84 07 80 02 	add  %fp, %g2, %g2
     ff4:	10 80 00 06 	b  100c <__kernel_rem_pio2+0x588>
     ff8:	d1 20 bd d0 	st  %f8, [ %g2 + -560 ]
     ffc:	85 2c 20 02 	sll  %l0, 2, %g2
    1000:	81 a0 1a 40 	fdtoi  %f0, %f0
    1004:	84 07 80 02 	add  %fp, %g2, %g2
    1008:	c1 20 bd d0 	st  %f0, [ %g2 + -560 ]
    100c:	05 00 00 20 	sethi  %hi(0x8000), %g2
    1010:	84 18 bf 60 	xor  %g2, -160, %g2
    1014:	84 05 c0 02 	add  %l7, %g2, %g2
    1018:	94 10 00 1a 	mov  %i2, %o2
    101c:	40 00 01 81 	call  1620 <__GI_scalbln>
    1020:	d0 18 80 00 	ldd  [ %g2 ], %o0
    1024:	07 00 00 20 	sethi  %hi(0x8000), %g3
    1028:	84 10 00 10 	mov  %l0, %g2
    102c:	86 18 ff 98 	xor  %g3, -104, %g3
    1030:	10 80 00 0c 	b  1060 <__kernel_rem_pio2+0x5dc>
    1034:	86 05 c0 03 	add  %l7, %g3, %g3
    1038:	ba 07 80 1d 	add  %fp, %i5, %i5
    103c:	d1 07 7d d0 	ld  [ %i5 + -560 ], %f8
    1040:	91 a0 19 08 	fitod  %f8, %f8
    1044:	91 a0 09 48 	fmuld  %f0, %f8, %f8
    1048:	89 28 a0 03 	sll  %g2, 3, %g4
    104c:	84 00 bf ff 	add  %g2, -1, %g2
    1050:	88 07 80 04 	add  %fp, %g4, %g4
    1054:	d1 39 3f 60 	std  %f8, [ %g4 + -160 ]
    1058:	d1 18 c0 00 	ldd  [ %g3 ], %f8
    105c:	81 a0 09 48 	fmuld  %f0, %f8, %f0
    1060:	80 a0 a0 00 	cmp  %g2, 0
    1064:	36 bf ff f5 	bge,a   1038 <__kernel_rem_pio2+0x5b4>
    1068:	bb 28 a0 02 	sll  %g2, 2, %i5
    106c:	3b 00 00 20 	sethi  %hi(0x8000), %i5
    1070:	37 00 00 20 	sethi  %hi(0x8000), %i3
    1074:	ba 1f 7f 10 	xor  %i5, -240, %i5
    1078:	b6 1e fe a8 	xor  %i3, -344, %i3
    107c:	86 10 00 10 	mov  %l0, %g3
    1080:	ba 05 c0 1d 	add  %l7, %i5, %i5
    1084:	10 80 00 13 	b  10d0 <__kernel_rem_pio2+0x64c>
    1088:	b6 05 c0 1b 	add  %l7, %i3, %i3
    108c:	b4 00 c0 02 	add  %g3, %g2, %i2
    1090:	d9 1e c0 18 	ldd  [ %i3 + %i0 ], %f12
    1094:	b5 2e a0 03 	sll  %i2, 3, %i2
    1098:	84 00 a0 01 	inc  %g2
    109c:	b4 07 80 1a 	add  %fp, %i2, %i2
    10a0:	d5 1e bf 60 	ldd  [ %i2 + -160 ], %f10
    10a4:	95 a3 09 4a 	fmuld  %f12, %f10, %f10
    10a8:	91 a2 08 4a 	faddd  %f8, %f10, %f8
    10ac:	80 a0 80 11 	cmp  %g2, %l1
    10b0:	14 80 00 04 	bg  10c0 <__kernel_rem_pio2+0x63c>
    10b4:	80 a0 80 04 	cmp  %g2, %g4
    10b8:	04 bf ff f5 	ble  108c <__kernel_rem_pio2+0x608>
    10bc:	b1 28 a0 03 	sll  %g2, 3, %i0
    10c0:	89 29 20 03 	sll  %g4, 3, %g4
    10c4:	86 00 ff ff 	add  %g3, -1, %g3
    10c8:	88 07 80 04 	add  %fp, %g4, %g4
    10cc:	d1 39 3e c0 	std  %f8, [ %g4 + -320 ]
    10d0:	80 a0 e0 00 	cmp  %g3, 0
    10d4:	06 80 00 05 	bl  10e8 <__kernel_rem_pio2+0x664>
    10d8:	84 10 20 00 	clr  %g2
    10dc:	d1 1f 40 00 	ldd  [ %i5 ], %f8
    10e0:	10 bf ff f3 	b  10ac <__kernel_rem_pio2+0x628>
    10e4:	88 24 00 03 	sub  %l0, %g3, %g4
    10e8:	80 a7 20 02 	cmp  %i4, 2
    10ec:	14 80 00 0b 	bg  1118 <__kernel_rem_pio2+0x694>
    10f0:	80 a7 20 03 	cmp  %i4, 3
    10f4:	80 a7 20 01 	cmp  %i4, 1
    10f8:	16 80 00 21 	bge  117c <__kernel_rem_pio2+0x6f8>
    10fc:	07 00 00 20 	sethi  %hi(0x8000), %g3
    1100:	80 a7 20 00 	cmp  %i4, 0
    1104:	02 80 00 0e 	be  113c <__kernel_rem_pio2+0x6b8>
    1108:	05 00 00 20 	sethi  %hi(0x8000), %g2
    110c:	b0 0c a0 07 	and  %l2, 7, %i0
    1110:	81 c7 e0 08 	ret 
    1114:	81 e8 00 00 	restore 
    1118:	12 80 00 72 	bne  12e0 <__kernel_rem_pio2+0x85c>
    111c:	b0 0c a0 07 	and  %l2, 7, %i0
    1120:	10 80 00 41 	b  1224 <__kernel_rem_pio2+0x7a0>
    1124:	84 10 00 10 	mov  %l0, %g2
    1128:	a0 04 3f ff 	add  %l0, -1, %l0
    112c:	84 07 80 02 	add  %fp, %g2, %g2
    1130:	d5 18 be c0 	ldd  [ %g2 + -320 ], %f10
    1134:	10 80 00 05 	b  1148 <__kernel_rem_pio2+0x6c4>
    1138:	91 a2 08 4a 	faddd  %f8, %f10, %f8
    113c:	84 18 bf 10 	xor  %g2, -240, %g2
    1140:	84 05 c0 02 	add  %l7, %g2, %g2
    1144:	d1 18 80 00 	ldd  [ %g2 ], %f8
    1148:	80 a4 20 00 	cmp  %l0, 0
    114c:	16 bf ff f7 	bge  1128 <__kernel_rem_pio2+0x6a4>
    1150:	85 2c 20 03 	sll  %l0, 3, %g2
    1154:	80 a5 20 00 	cmp  %l4, 0
    1158:	32 80 00 02 	bne,a   1160 <__kernel_rem_pio2+0x6dc>
    115c:	91 a0 00 a8 	fnegs  %f8, %f8
    1160:	10 80 00 5f 	b  12dc <__kernel_rem_pio2+0x858>
    1164:	d1 3e 40 00 	std  %f8, [ %i1 ]
    1168:	84 00 bf ff 	add  %g2, -1, %g2
    116c:	86 07 80 03 	add  %fp, %g3, %g3
    1170:	d5 18 fe c0 	ldd  [ %g3 + -320 ], %f10
    1174:	10 80 00 06 	b  118c <__kernel_rem_pio2+0x708>
    1178:	91 a2 08 4a 	faddd  %f8, %f10, %f8
    117c:	84 10 00 10 	mov  %l0, %g2
    1180:	86 18 ff 10 	xor  %g3, -240, %g3
    1184:	86 05 c0 03 	add  %l7, %g3, %g3
    1188:	d1 18 c0 00 	ldd  [ %g3 ], %f8
    118c:	80 a0 a0 00 	cmp  %g2, 0
    1190:	16 bf ff f6 	bge  1168 <__kernel_rem_pio2+0x6e4>
    1194:	87 28 a0 03 	sll  %g2, 3, %g3
    1198:	95 a0 00 28 	fmovs  %f8, %f10
    119c:	80 a5 20 00 	cmp  %l4, 0
    11a0:	02 80 00 04 	be  11b0 <__kernel_rem_pio2+0x72c>
    11a4:	97 a0 00 29 	fmovs  %f9, %f11
    11a8:	95 a0 00 a8 	fnegs  %f8, %f10
    11ac:	97 a0 00 29 	fmovs  %f9, %f11
    11b0:	d5 3e 40 00 	std  %f10, [ %i1 ]
    11b4:	84 10 20 01 	mov  1, %g2
    11b8:	d5 1f be c0 	ldd  [ %fp + -320 ], %f10
    11bc:	10 80 00 06 	b  11d4 <__kernel_rem_pio2+0x750>
    11c0:	91 a2 88 c8 	fsubd  %f10, %f8, %f8
    11c4:	84 00 a0 01 	inc  %g2
    11c8:	86 07 80 03 	add  %fp, %g3, %g3
    11cc:	d5 18 fe c0 	ldd  [ %g3 + -320 ], %f10
    11d0:	91 a2 08 4a 	faddd  %f8, %f10, %f8
    11d4:	80 a0 80 10 	cmp  %g2, %l0
    11d8:	04 bf ff fb 	ble  11c4 <__kernel_rem_pio2+0x740>
    11dc:	87 28 a0 03 	sll  %g2, 3, %g3
    11e0:	80 a5 20 00 	cmp  %l4, 0
    11e4:	32 80 00 02 	bne,a   11ec <__kernel_rem_pio2+0x768>
    11e8:	91 a0 00 a8 	fnegs  %f8, %f8
    11ec:	10 80 00 3c 	b  12dc <__kernel_rem_pio2+0x858>
    11f0:	d1 3e 60 08 	std  %f8, [ %i1 + 8 ]
    11f4:	85 28 a0 03 	sll  %g2, 3, %g2
    11f8:	89 28 e0 03 	sll  %g3, 3, %g4
    11fc:	84 07 80 02 	add  %fp, %g2, %g2
    1200:	88 07 80 04 	add  %fp, %g4, %g4
    1204:	d5 18 be c0 	ldd  [ %g2 + -320 ], %f10
    1208:	d9 19 3e c0 	ldd  [ %g4 + -320 ], %f12
    120c:	91 a3 08 4a 	faddd  %f12, %f10, %f8
    1210:	99 a3 08 c8 	fsubd  %f12, %f8, %f12
    1214:	95 a2 88 4c 	faddd  %f10, %f12, %f10
    1218:	d5 38 be c0 	std  %f10, [ %g2 + -320 ]
    121c:	d1 39 3e c0 	std  %f8, [ %g4 + -320 ]
    1220:	84 10 00 03 	mov  %g3, %g2
    1224:	80 a0 a0 00 	cmp  %g2, 0
    1228:	14 bf ff f3 	bg  11f4 <__kernel_rem_pio2+0x770>
    122c:	86 00 bf ff 	add  %g2, -1, %g3
    1230:	10 80 00 0e 	b  1268 <__kernel_rem_pio2+0x7e4>
    1234:	84 10 00 10 	mov  %l0, %g2
    1238:	85 28 a0 03 	sll  %g2, 3, %g2
    123c:	89 28 e0 03 	sll  %g3, 3, %g4
    1240:	84 07 80 02 	add  %fp, %g2, %g2
    1244:	88 07 80 04 	add  %fp, %g4, %g4
    1248:	d5 18 be c0 	ldd  [ %g2 + -320 ], %f10
    124c:	d9 19 3e c0 	ldd  [ %g4 + -320 ], %f12
    1250:	91 a3 08 4a 	faddd  %f12, %f10, %f8
    1254:	99 a3 08 c8 	fsubd  %f12, %f8, %f12
    1258:	95 a2 88 4c 	faddd  %f10, %f12, %f10
    125c:	d5 38 be c0 	std  %f10, [ %g2 + -320 ]
    1260:	d1 39 3e c0 	std  %f8, [ %g4 + -320 ]
    1264:	84 10 00 03 	mov  %g3, %g2
    1268:	80 a0 a0 01 	cmp  %g2, 1
    126c:	14 bf ff f3 	bg  1238 <__kernel_rem_pio2+0x7b4>
    1270:	86 00 bf ff 	add  %g2, -1, %g3
    1274:	05 00 00 20 	sethi  %hi(0x8000), %g2
    1278:	84 18 bf 10 	xor  %g2, -240, %g2
    127c:	84 05 c0 02 	add  %l7, %g2, %g2
    1280:	10 80 00 06 	b  1298 <__kernel_rem_pio2+0x814>
    1284:	d1 18 80 00 	ldd  [ %g2 ], %f8
    1288:	a0 04 3f ff 	add  %l0, -1, %l0
    128c:	84 07 80 02 	add  %fp, %g2, %g2
    1290:	d5 18 be c0 	ldd  [ %g2 + -320 ], %f10
    1294:	91 a2 08 4a 	faddd  %f8, %f10, %f8
    1298:	80 a4 20 01 	cmp  %l0, 1
    129c:	14 bf ff fb 	bg  1288 <__kernel_rem_pio2+0x804>
    12a0:	85 2c 20 03 	sll  %l0, 3, %g2
    12a4:	80 a5 20 00 	cmp  %l4, 0
    12a8:	12 80 00 06 	bne  12c0 <__kernel_rem_pio2+0x83c>
    12ac:	d5 1f be c0 	ldd  [ %fp + -320 ], %f10
    12b0:	d5 3e 40 00 	std  %f10, [ %i1 ]
    12b4:	d5 1f be c8 	ldd  [ %fp + -312 ], %f10
    12b8:	10 80 00 08 	b  12d8 <__kernel_rem_pio2+0x854>
    12bc:	d5 3e 60 08 	std  %f10, [ %i1 + 8 ]
    12c0:	95 a0 00 aa 	fnegs  %f10, %f10
    12c4:	91 a0 00 a8 	fnegs  %f8, %f8
    12c8:	d5 3e 40 00 	std  %f10, [ %i1 ]
    12cc:	d5 1f be c8 	ldd  [ %fp + -312 ], %f10
    12d0:	95 a0 00 aa 	fnegs  %f10, %f10
    12d4:	d5 3e 60 08 	std  %f10, [ %i1 + 8 ]
    12d8:	d1 3e 60 10 	std  %f8, [ %i1 + 0x10 ]
    12dc:	b0 0c a0 07 	and  %l2, 7, %i0
    12e0:	81 c7 e0 08 	ret 
    12e4:	81 e8 00 00 	restore 

000012e8 <__kernel_sin>:
    12e8:	9d e3 bf 90 	save  %sp, -112, %sp
    12ec:	f0 3f bf f8 	std  %i0, [ %fp + -8 ]
    12f0:	03 20 00 00 	sethi  %hi(0x80000000), %g1
    12f4:	c1 1f bf f8 	ldd  [ %fp + -8 ], %f0
    12f8:	f4 3f bf f8 	std  %i2, [ %fp + -8 ]
    12fc:	84 2e 00 01 	andn  %i0, %g1, %g2
    1300:	2f 10 00 1b 	sethi  %hi(0x40006c00), %l7
    1304:	40 00 0b 44 	call  4014 <__sparc_get_pc_thunk.l7>
    1308:	ae 05 e3 ec 	add  %l7, 0x3ec, %l7	! 40006fec <data+0x2cfc>
    130c:	03 0f 8f ff 	sethi  %hi(0x3e3ffc00), %g1
    1310:	82 10 63 ff 	or  %g1, 0x3ff, %g1	! 3e3fffff <__sparc_get_pc_thunk.l7+0x3e3fbfeb>
    1314:	80 a0 80 01 	cmp  %g2, %g1
    1318:	14 80 00 08 	bg  1338 <__kernel_sin+0x50>
    131c:	d9 1f bf f8 	ldd  [ %fp + -8 ], %f12
    1320:	91 a0 1a 40 	fdtoi  %f0, %f8
    1324:	d1 27 bf f4 	st  %f8, [ %fp + -12 ]
    1328:	c2 07 bf f4 	ld  [ %fp + -12 ], %g1
    132c:	80 a0 60 00 	cmp  %g1, 0
    1330:	02 80 00 3c 	be  1420 <__kernel_sin+0x138>
    1334:	01 00 00 00 	nop 
    1338:	03 00 00 20 	sethi  %hi(0x8000), %g1
    133c:	82 18 7f b0 	xor  %g1, -80, %g1
    1340:	82 05 c0 01 	add  %l7, %g1, %g1
    1344:	dd 18 40 00 	ldd  [ %g1 ], %f14
    1348:	03 00 00 20 	sethi  %hi(0x8000), %g1
    134c:	82 18 7f b8 	xor  %g1, -72, %g1
    1350:	82 05 c0 01 	add  %l7, %g1, %g1
    1354:	e1 18 40 00 	ldd  [ %g1 ], %f16
    1358:	91 a0 09 40 	fmuld  %f0, %f0, %f8
    135c:	03 00 00 20 	sethi  %hi(0x8000), %g1
    1360:	9d a2 09 4e 	fmuld  %f8, %f14, %f14
    1364:	82 18 7f c0 	xor  %g1, -64, %g1
    1368:	9d a3 88 d0 	fsubd  %f14, %f16, %f14
    136c:	82 05 c0 01 	add  %l7, %g1, %g1
    1370:	e1 18 40 00 	ldd  [ %g1 ], %f16
    1374:	9d a2 09 4e 	fmuld  %f8, %f14, %f14
    1378:	03 00 00 20 	sethi  %hi(0x8000), %g1
    137c:	9d a3 88 50 	faddd  %f14, %f16, %f14
    1380:	82 18 7f c8 	xor  %g1, -56, %g1
    1384:	82 05 c0 01 	add  %l7, %g1, %g1
    1388:	e1 18 40 00 	ldd  [ %g1 ], %f16
    138c:	9d a2 09 4e 	fmuld  %f8, %f14, %f14
    1390:	03 00 00 20 	sethi  %hi(0x8000), %g1
    1394:	9d a3 88 d0 	fsubd  %f14, %f16, %f14
    1398:	82 18 7f d0 	xor  %g1, -48, %g1
    139c:	9d a2 09 4e 	fmuld  %f8, %f14, %f14
    13a0:	82 05 c0 01 	add  %l7, %g1, %g1
    13a4:	95 a2 09 40 	fmuld  %f8, %f0, %f10
    13a8:	e1 18 40 00 	ldd  [ %g1 ], %f16
    13ac:	80 a7 20 00 	cmp  %i4, 0
    13b0:	12 80 00 0c 	bne  13e0 <__kernel_sin+0xf8>
    13b4:	9d a3 88 50 	faddd  %f14, %f16, %f14
    13b8:	91 a2 09 4e 	fmuld  %f8, %f14, %f8
    13bc:	03 00 00 20 	sethi  %hi(0x8000), %g1
    13c0:	82 18 7f d8 	xor  %g1, -40, %g1
    13c4:	82 05 c0 01 	add  %l7, %g1, %g1
    13c8:	d9 18 40 00 	ldd  [ %g1 ], %f12
    13cc:	91 a2 08 cc 	fsubd  %f8, %f12, %f8
    13d0:	95 a2 89 48 	fmuld  %f10, %f8, %f10
    13d4:	81 a0 08 4a 	faddd  %f0, %f10, %f0
    13d8:	81 c7 e0 08 	ret 
    13dc:	81 e8 00 00 	restore 
    13e0:	9d a2 89 4e 	fmuld  %f10, %f14, %f14
    13e4:	03 00 00 20 	sethi  %hi(0x8000), %g1
    13e8:	82 18 7f 00 	xor  %g1, -256, %g1
    13ec:	82 05 c0 01 	add  %l7, %g1, %g1
    13f0:	e1 18 40 00 	ldd  [ %g1 ], %f16
    13f4:	a1 a3 09 50 	fmuld  %f12, %f16, %f16
    13f8:	9d a4 08 ce 	fsubd  %f16, %f14, %f14
    13fc:	91 a2 09 4e 	fmuld  %f8, %f14, %f8
    1400:	03 00 00 20 	sethi  %hi(0x8000), %g1
    1404:	99 a2 08 cc 	fsubd  %f8, %f12, %f12
    1408:	82 18 7f d8 	xor  %g1, -40, %g1
    140c:	82 05 c0 01 	add  %l7, %g1, %g1
    1410:	d1 18 40 00 	ldd  [ %g1 ], %f8
    1414:	95 a2 89 48 	fmuld  %f10, %f8, %f10
    1418:	95 a3 08 4a 	faddd  %f12, %f10, %f10
    141c:	81 a0 08 ca 	fsubd  %f0, %f10, %f0
    1420:	81 c7 e0 08 	ret 
    1424:	81 e8 00 00 	restore 

00001428 <__GI_fabs>:
    1428:	9c 03 bf a8 	add  %sp, -88, %sp
    142c:	d0 3b a0 50 	std  %o0, [ %sp + 0x50 ]
    1430:	c1 1b a0 50 	ldd  [ %sp + 0x50 ], %f0
    1434:	03 20 00 00 	sethi  %hi(0x80000000), %g1
    1438:	82 2a 00 01 	andn  %o0, %g1, %g1
    143c:	c2 23 a0 4c 	st  %g1, [ %sp + 0x4c ]
    1440:	c1 03 a0 4c 	ld  [ %sp + 0x4c ], %f0
    1444:	81 c3 e0 08 	retl 
    1448:	9c 23 bf a8 	sub  %sp, -88, %sp

0000144c <__GI_floor>:
    144c:	9d e3 bf 98 	save  %sp, -104, %sp
    1450:	f0 3f bf f8 	std  %i0, [ %fp + -8 ]
    1454:	2f 10 00 1b 	sethi  %hi(0x40006c00), %l7
    1458:	40 00 0a ef 	call  4014 <__sparc_get_pc_thunk.l7>
    145c:	ae 05 e2 98 	add  %l7, 0x298, %l7	! 40006e98 <data+0x2ba8>
    1460:	87 3e 20 14 	sra  %i0, 0x14, %g3
    1464:	86 08 e7 ff 	and  %g3, 0x7ff, %g3
    1468:	c1 1f bf f8 	ldd  [ %fp + -8 ], %f0
    146c:	84 00 fc 01 	add  %g3, -1023, %g2
    1470:	82 10 00 18 	mov  %i0, %g1
    1474:	80 a0 a0 13 	cmp  %g2, 0x13
    1478:	14 80 00 37 	bg  1554 <__GI_floor+0x108>
    147c:	88 10 00 19 	mov  %i1, %g4
    1480:	80 a0 a0 00 	cmp  %g2, 0
    1484:	16 80 00 19 	bge  14e8 <__GI_floor+0x9c>
    1488:	3b 00 03 ff 	sethi  %hi(0xffc00), %i5
    148c:	05 00 00 20 	sethi  %hi(0x8000), %g2
    1490:	84 18 bf e0 	xor  %g2, -32, %g2
    1494:	84 05 c0 02 	add  %l7, %g2, %g2
    1498:	d1 18 80 00 	ldd  [ %g2 ], %f8
    149c:	05 00 00 20 	sethi  %hi(0x8000), %g2
    14a0:	81 a0 08 48 	faddd  %f0, %f8, %f0
    14a4:	84 18 bf 10 	xor  %g2, -240, %g2
    14a8:	84 05 c0 02 	add  %l7, %g2, %g2
    14ac:	d1 18 80 00 	ldd  [ %g2 ], %f8
    14b0:	81 a8 0a c8 	fcmped  %f0, %f8
    14b4:	01 00 00 00 	nop 
    14b8:	1d 80 00 54 	fbule  1608 <__GI_floor+0x1bc>
    14bc:	01 00 00 00 	nop 
    14c0:	80 a6 20 00 	cmp  %i0, 0
    14c4:	36 80 00 4e 	bge,a   15fc <__GI_floor+0x1b0>
    14c8:	88 10 20 00 	clr  %g4
    14cc:	05 20 00 00 	sethi  %hi(0x80000000), %g2
    14d0:	84 2e 00 02 	andn  %i0, %g2, %g2
    14d4:	80 90 80 19 	orcc  %g2, %i1, %g0
    14d8:	32 80 00 4b 	bne,a   1604 <__GI_floor+0x1b8>
    14dc:	88 10 20 00 	clr  %g4
    14e0:	10 80 00 4b 	b  160c <__GI_floor+0x1c0>
    14e4:	84 10 00 01 	mov  %g1, %g2
    14e8:	ba 17 63 ff 	or  %i5, 0x3ff, %i5
    14ec:	bb 3f 40 02 	sra  %i5, %g2, %i5
    14f0:	86 0f 40 18 	and  %i5, %i0, %g3
    14f4:	80 90 c0 19 	orcc  %g3, %i1, %g0
    14f8:	02 80 00 1e 	be  1570 <__GI_floor+0x124>
    14fc:	07 00 00 20 	sethi  %hi(0x8000), %g3
    1500:	86 18 ff e0 	xor  %g3, -32, %g3
    1504:	86 05 c0 03 	add  %l7, %g3, %g3
    1508:	d1 18 c0 00 	ldd  [ %g3 ], %f8
    150c:	07 00 00 20 	sethi  %hi(0x8000), %g3
    1510:	81 a0 08 48 	faddd  %f0, %f8, %f0
    1514:	86 18 ff 10 	xor  %g3, -240, %g3
    1518:	86 05 c0 03 	add  %l7, %g3, %g3
    151c:	d1 18 c0 00 	ldd  [ %g3 ], %f8
    1520:	81 a8 0a c8 	fcmped  %f0, %f8
    1524:	01 00 00 00 	nop 
    1528:	1d 80 00 38 	fbule  1608 <__GI_floor+0x1bc>
    152c:	01 00 00 00 	nop 
    1530:	80 a6 20 00 	cmp  %i0, 0
    1534:	36 80 00 06 	bge,a   154c <__GI_floor+0x100>
    1538:	82 28 40 1d 	andn  %g1, %i5, %g1
    153c:	07 00 04 00 	sethi  %hi(0x100000), %g3
    1540:	85 38 c0 02 	sra  %g3, %g2, %g2
    1544:	82 06 00 02 	add  %i0, %g2, %g1
    1548:	82 28 40 1d 	andn  %g1, %i5, %g1
    154c:	10 80 00 2f 	b  1608 <__GI_floor+0x1bc>
    1550:	88 10 20 00 	clr  %g4
    1554:	80 a0 a0 33 	cmp  %g2, 0x33
    1558:	04 80 00 08 	ble  1578 <__GI_floor+0x12c>
    155c:	ba 00 fb ed 	add  %g3, -1043, %i5
    1560:	80 a0 a4 00 	cmp  %g2, 0x400
    1564:	12 80 00 2d 	bne  1618 <__GI_floor+0x1cc>
    1568:	01 00 00 00 	nop 
    156c:	81 a0 08 40 	faddd  %f0, %f0, %f0
    1570:	81 c7 e0 08 	ret 
    1574:	81 e8 00 00 	restore 
    1578:	b8 10 3f ff 	mov  -1, %i4
    157c:	b9 37 00 1d 	srl  %i4, %i5, %i4
    1580:	80 8f 00 19 	btst  %i4, %i1
    1584:	02 bf ff fb 	be  1570 <__GI_floor+0x124>
    1588:	3b 00 00 20 	sethi  %hi(0x8000), %i5
    158c:	ba 1f 7f e0 	xor  %i5, -32, %i5
    1590:	ba 05 c0 1d 	add  %l7, %i5, %i5
    1594:	d1 1f 40 00 	ldd  [ %i5 ], %f8
    1598:	3b 00 00 20 	sethi  %hi(0x8000), %i5
    159c:	81 a0 08 48 	faddd  %f0, %f8, %f0
    15a0:	ba 1f 7f 10 	xor  %i5, -240, %i5
    15a4:	ba 05 c0 1d 	add  %l7, %i5, %i5
    15a8:	d1 1f 40 00 	ldd  [ %i5 ], %f8
    15ac:	81 a8 0a c8 	fcmped  %f0, %f8
    15b0:	01 00 00 00 	nop 
    15b4:	1d 80 00 15 	fbule  1608 <__GI_floor+0x1bc>
    15b8:	01 00 00 00 	nop 
    15bc:	80 a6 20 00 	cmp  %i0, 0
    15c0:	36 80 00 12 	bge,a   1608 <__GI_floor+0x1bc>
    15c4:	88 29 00 1c 	andn  %g4, %i4, %g4
    15c8:	80 a0 a0 14 	cmp  %g2, 0x14
    15cc:	12 80 00 04 	bne  15dc <__GI_floor+0x190>
    15d0:	84 10 24 33 	mov  0x433, %g2
    15d4:	10 80 00 08 	b  15f4 <__GI_floor+0x1a8>
    15d8:	82 06 20 01 	add  %i0, 1, %g1
    15dc:	86 20 80 03 	sub  %g2, %g3, %g3
    15e0:	84 10 20 01 	mov  1, %g2
    15e4:	87 28 80 03 	sll  %g2, %g3, %g3
    15e8:	88 06 40 03 	add  %i1, %g3, %g4
    15ec:	80 a1 00 19 	cmp  %g4, %i1
    15f0:	82 40 00 18 	addx  %g0, %i0, %g1
    15f4:	10 80 00 05 	b  1608 <__GI_floor+0x1bc>
    15f8:	88 29 00 1c 	andn  %g4, %i4, %g4
    15fc:	10 80 00 03 	b  1608 <__GI_floor+0x1bc>
    1600:	82 10 20 00 	clr  %g1
    1604:	03 2f fc 00 	sethi  %hi(0xbff00000), %g1
    1608:	84 10 00 01 	mov  %g1, %g2
    160c:	86 10 00 04 	mov  %g4, %g3
    1610:	c4 3f bf f8 	std  %g2, [ %fp + -8 ]
    1614:	c1 1f bf f8 	ldd  [ %fp + -8 ], %f0
    1618:	81 c7 e0 08 	ret 
    161c:	81 e8 00 00 	restore 

00001620 <__GI_scalbln>:
    1620:	9d e3 bf 88 	save  %sp, -120, %sp
    1624:	f0 3f bf f0 	std  %i0, [ %fp + -16 ]
    1628:	2f 10 00 1b 	sethi  %hi(0x40006c00), %l7
    162c:	40 00 0a 7a 	call  4014 <__sparc_get_pc_thunk.l7>
    1630:	ae 05 e0 c4 	add  %l7, 0xc4, %l7	! 40006cc4 <data+0x29d4>
    1634:	09 1f fc 00 	sethi  %hi(0x7ff00000), %g4
    1638:	82 0e 00 04 	and  %i0, %g4, %g1
    163c:	c1 1f bf f0 	ldd  [ %fp + -16 ], %f0
    1640:	83 38 60 14 	sra  %g1, 0x14, %g1
    1644:	80 a0 60 00 	cmp  %g1, 0
    1648:	12 80 00 12 	bne  1690 <__GI_scalbln+0x70>
    164c:	84 10 00 18 	mov  %i0, %g2
    1650:	03 20 00 00 	sethi  %hi(0x80000000), %g1
    1654:	ba 2e 00 01 	andn  %i0, %g1, %i5
    1658:	80 97 40 19 	orcc  %i5, %i1, %g0
    165c:	02 80 00 11 	be  16a0 <__GI_scalbln+0x80>
    1660:	05 00 00 20 	sethi  %hi(0x8000), %g2
    1664:	84 18 bf e8 	xor  %g2, -24, %g2
    1668:	84 05 c0 02 	add  %l7, %g2, %g2
    166c:	d1 18 80 00 	ldd  [ %g2 ], %f8
    1670:	81 a0 09 48 	fmuld  %f0, %f8, %f0
    1674:	c1 3f bf f0 	std  %f0, [ %fp + -16 ]
    1678:	f8 1f bf f0 	ldd  [ %fp + -16 ], %i4
    167c:	84 10 00 1c 	mov  %i4, %g2
    1680:	82 08 80 04 	and  %g2, %g4, %g1
    1684:	83 38 60 14 	sra  %g1, 0x14, %g1
    1688:	10 80 00 08 	b  16a8 <__GI_scalbln+0x88>
    168c:	82 00 7f ca 	add  %g1, -54, %g1
    1690:	80 a0 67 ff 	cmp  %g1, 0x7ff
    1694:	32 80 00 06 	bne,a   16ac <__GI_scalbln+0x8c>
    1698:	82 00 40 1a 	add  %g1, %i2, %g1
    169c:	81 a0 08 40 	faddd  %f0, %f0, %f0
    16a0:	81 c7 e0 08 	ret 
    16a4:	81 e8 00 00 	restore 
    16a8:	82 00 40 1a 	add  %g1, %i2, %g1
    16ac:	80 a0 67 fe 	cmp  %g1, 0x7fe
    16b0:	04 80 00 04 	ble  16c0 <__GI_scalbln+0xa0>
    16b4:	07 3f ff cf 	sethi  %hi(0xffff3c00), %g3
    16b8:	10 80 00 1a 	b  1720 <__GI_scalbln+0x100>
    16bc:	03 00 00 20 	sethi  %hi(0x8000), %g1
    16c0:	86 10 e0 b0 	or  %g3, 0xb0, %g3
    16c4:	80 a6 80 03 	cmp  %i2, %g3
    16c8:	16 80 00 04 	bge  16d8 <__GI_scalbln+0xb8>
    16cc:	80 a0 60 00 	cmp  %g1, 0
    16d0:	10 80 00 17 	b  172c <__GI_scalbln+0x10c>
    16d4:	03 00 00 20 	sethi  %hi(0x8000), %g1
    16d8:	04 80 00 09 	ble  16fc <__GI_scalbln+0xdc>
    16dc:	07 1f fc 00 	sethi  %hi(0x7ff00000), %g3
    16e0:	83 28 60 14 	sll  %g1, 0x14, %g1
    16e4:	84 28 80 03 	andn  %g2, %g3, %g2
    16e8:	84 10 40 02 	or  %g1, %g2, %g2
    16ec:	c4 27 bf ec 	st  %g2, [ %fp + -20 ]
    16f0:	c1 07 bf ec 	ld  [ %fp + -20 ], %f0
    16f4:	81 c7 e0 08 	ret 
    16f8:	81 e8 00 00 	restore 
    16fc:	80 a0 7f cb 	cmp  %g1, -53
    1700:	16 80 00 15 	bge  1754 <__GI_scalbln+0x134>
    1704:	82 00 60 36 	add  %g1, 0x36, %g1
    1708:	03 00 00 30 	sethi  %hi(0xc000), %g1
    170c:	82 10 63 50 	or  %g1, 0x350, %g1	! c350 <__sparc_get_pc_thunk.l7+0x833c>
    1710:	80 a6 80 01 	cmp  %i2, %g1
    1714:	24 80 00 06 	ble,a   172c <__GI_scalbln+0x10c>
    1718:	03 00 00 20 	sethi  %hi(0x8000), %g1
    171c:	03 00 00 20 	sethi  %hi(0x8000), %g1
    1720:	82 18 7f e0 	xor  %g1, -32, %g1
    1724:	10 80 00 04 	b  1734 <__GI_scalbln+0x114>
    1728:	82 05 c0 01 	add  %l7, %g1, %g1
    172c:	82 18 7f f0 	xor  %g1, -16, %g1
    1730:	82 05 c0 01 	add  %l7, %g1, %g1
    1734:	d1 18 40 00 	ldd  [ %g1 ], %f8
    1738:	c1 3f bf f0 	std  %f0, [ %fp + -16 ]
    173c:	d1 3f bf f8 	std  %f8, [ %fp + -8 ]
    1740:	d0 18 40 00 	ldd  [ %g1 ], %o0
    1744:	40 00 00 11 	call  1788 <__GI_copysign>
    1748:	d4 1f bf f0 	ldd  [ %fp + -16 ], %o2
    174c:	10 80 00 0c 	b  177c <__GI_scalbln+0x15c>
    1750:	d1 1f bf f8 	ldd  [ %fp + -8 ], %f8
    1754:	83 28 60 14 	sll  %g1, 0x14, %g1
    1758:	07 1f fc 00 	sethi  %hi(0x7ff00000), %g3
    175c:	84 28 80 03 	andn  %g2, %g3, %g2
    1760:	84 10 40 02 	or  %g1, %g2, %g2
    1764:	03 00 00 20 	sethi  %hi(0x8000), %g1
    1768:	c4 27 bf ec 	st  %g2, [ %fp + -20 ]
    176c:	82 18 7f f8 	xor  %g1, -8, %g1
    1770:	c1 07 bf ec 	ld  [ %fp + -20 ], %f0
    1774:	82 05 c0 01 	add  %l7, %g1, %g1
    1778:	d1 18 40 00 	ldd  [ %g1 ], %f8
    177c:	81 a0 09 48 	fmuld  %f0, %f8, %f0
    1780:	81 c7 e0 08 	ret 
    1784:	81 e8 00 00 	restore 

00001788 <__GI_copysign>:
    1788:	9c 03 bf a8 	add  %sp, -88, %sp
    178c:	d0 3b a0 50 	std  %o0, [ %sp + 0x50 ]
    1790:	c1 1b a0 50 	ldd  [ %sp + 0x50 ], %f0
    1794:	03 20 00 00 	sethi  %hi(0x80000000), %g1
    1798:	94 0a 80 01 	and  %o2, %g1, %o2
    179c:	84 2a 00 01 	andn  %o0, %g1, %g2
    17a0:	84 12 80 02 	or  %o2, %g2, %g2
    17a4:	c4 23 a0 4c 	st  %g2, [ %sp + 0x4c ]
    17a8:	c1 03 a0 4c 	ld  [ %sp + 0x4c ], %f0
    17ac:	81 c3 e0 08 	retl 
    17b0:	9c 23 bf a8 	sub  %sp, -88, %sp
	...

00001800 <page_table_setup>:
    1800:	03 00 00 07 	sethi  %hi(0x1c00), %g1
    1804:	82 10 60 00 	mov  %g1, %g1	! 1c00 <PAGE_TABLE_BASE>
    1808:	84 10 20 8e 	mov  0x8e, %g2
    180c:	8a 10 20 00 	clr  %g5
    1810:	86 01 40 01 	add  %g5, %g1, %g3
    1814:	c4 20 c0 00 	st  %g2, [ %g3 ]
    1818:	81 c3 e0 08 	retl 
    181c:	01 00 00 00 	nop 

00001820 <set_context_table_pointer>:
    1820:	03 00 00 07 	sethi  %hi(0x1c00), %g1
    1824:	82 10 60 00 	mov  %g1, %g1	! 1c00 <PAGE_TABLE_BASE>
    1828:	8a 10 20 00 	clr  %g5
    182c:	84 01 40 01 	add  %g5, %g1, %g2
    1830:	85 30 a0 04 	srl  %g2, 4, %g2
    1834:	84 10 a0 01 	or  %g2, 1, %g2
    1838:	86 10 21 00 	mov  0x100, %g3
    183c:	c4 a0 c0 80 	sta  %g2, [ %g3 ] #ASI_N
    1840:	81 c3 e0 08 	retl 
    1844:	01 00 00 00 	nop 
    1848:	01 00 00 00 	nop 
    184c:	01 00 00 00 	nop 
    1850:	01 00 00 00 	nop 
    1854:	01 00 00 00 	nop 
    1858:	01 00 00 00 	nop 
    185c:	01 00 00 00 	nop 
    1860:	01 00 00 00 	nop 
    1864:	01 00 00 00 	nop 
    1868:	01 00 00 00 	nop 
    186c:	01 00 00 00 	nop 
    1870:	01 00 00 00 	nop 
    1874:	01 00 00 00 	nop 
    1878:	01 00 00 00 	nop 
    187c:	01 00 00 00 	nop 
    1880:	01 00 00 00 	nop 
    1884:	01 00 00 00 	nop 
    1888:	01 00 00 00 	nop 
    188c:	01 00 00 00 	nop 
    1890:	01 00 00 00 	nop 
    1894:	01 00 00 00 	nop 
    1898:	01 00 00 00 	nop 
    189c:	01 00 00 00 	nop 
    18a0:	01 00 00 00 	nop 
    18a4:	01 00 00 00 	nop 
    18a8:	01 00 00 00 	nop 
    18ac:	01 00 00 00 	nop 
    18b0:	01 00 00 00 	nop 
    18b4:	01 00 00 00 	nop 
    18b8:	01 00 00 00 	nop 
    18bc:	01 00 00 00 	nop 
    18c0:	01 00 00 00 	nop 
    18c4:	01 00 00 00 	nop 
    18c8:	01 00 00 00 	nop 
    18cc:	01 00 00 00 	nop 
    18d0:	01 00 00 00 	nop 
    18d4:	01 00 00 00 	nop 
    18d8:	01 00 00 00 	nop 
    18dc:	01 00 00 00 	nop 
    18e0:	01 00 00 00 	nop 
    18e4:	01 00 00 00 	nop 
    18e8:	01 00 00 00 	nop 
    18ec:	01 00 00 00 	nop 
    18f0:	01 00 00 00 	nop 
    18f4:	01 00 00 00 	nop 
    18f8:	01 00 00 00 	nop 
    18fc:	01 00 00 00 	nop 
    1900:	01 00 00 00 	nop 
    1904:	01 00 00 00 	nop 
    1908:	01 00 00 00 	nop 
    190c:	01 00 00 00 	nop 
    1910:	01 00 00 00 	nop 
    1914:	01 00 00 00 	nop 
    1918:	01 00 00 00 	nop 
    191c:	01 00 00 00 	nop 
    1920:	01 00 00 00 	nop 
    1924:	01 00 00 00 	nop 
    1928:	01 00 00 00 	nop 
    192c:	01 00 00 00 	nop 
    1930:	01 00 00 00 	nop 
    1934:	01 00 00 00 	nop 
    1938:	01 00 00 00 	nop 
    193c:	01 00 00 00 	nop 
    1940:	01 00 00 00 	nop 
    1944:	01 00 00 00 	nop 
    1948:	01 00 00 00 	nop 
    194c:	01 00 00 00 	nop 
    1950:	01 00 00 00 	nop 
    1954:	01 00 00 00 	nop 
    1958:	01 00 00 00 	nop 
    195c:	01 00 00 00 	nop 
    1960:	01 00 00 00 	nop 
    1964:	01 00 00 00 	nop 
    1968:	01 00 00 00 	nop 
    196c:	01 00 00 00 	nop 
    1970:	01 00 00 00 	nop 
    1974:	01 00 00 00 	nop 
    1978:	01 00 00 00 	nop 
    197c:	01 00 00 00 	nop 
    1980:	01 00 00 00 	nop 
    1984:	01 00 00 00 	nop 
    1988:	01 00 00 00 	nop 
    198c:	01 00 00 00 	nop 
    1990:	01 00 00 00 	nop 
    1994:	01 00 00 00 	nop 
    1998:	01 00 00 00 	nop 
    199c:	01 00 00 00 	nop 
    19a0:	01 00 00 00 	nop 
    19a4:	01 00 00 00 	nop 
    19a8:	01 00 00 00 	nop 
    19ac:	01 00 00 00 	nop 
    19b0:	01 00 00 00 	nop 
    19b4:	01 00 00 00 	nop 
    19b8:	01 00 00 00 	nop 
    19bc:	01 00 00 00 	nop 
    19c0:	01 00 00 00 	nop 
    19c4:	01 00 00 00 	nop 
    19c8:	01 00 00 00 	nop 
    19cc:	01 00 00 00 	nop 
    19d0:	01 00 00 00 	nop 
    19d4:	01 00 00 00 	nop 
    19d8:	01 00 00 00 	nop 
    19dc:	01 00 00 00 	nop 
    19e0:	01 00 00 00 	nop 
    19e4:	01 00 00 00 	nop 
    19e8:	01 00 00 00 	nop 
    19ec:	01 00 00 00 	nop 
    19f0:	01 00 00 00 	nop 
    19f4:	01 00 00 00 	nop 
    19f8:	01 00 00 00 	nop 
    19fc:	01 00 00 00 	nop 
    1a00:	01 00 00 00 	nop 
    1a04:	01 00 00 00 	nop 
    1a08:	01 00 00 00 	nop 
    1a0c:	01 00 00 00 	nop 
    1a10:	01 00 00 00 	nop 
    1a14:	01 00 00 00 	nop 
    1a18:	01 00 00 00 	nop 
    1a1c:	01 00 00 00 	nop 
    1a20:	01 00 00 00 	nop 
    1a24:	01 00 00 00 	nop 
    1a28:	01 00 00 00 	nop 
    1a2c:	01 00 00 00 	nop 
    1a30:	01 00 00 00 	nop 
    1a34:	01 00 00 00 	nop 
    1a38:	01 00 00 00 	nop 
    1a3c:	01 00 00 00 	nop 
    1a40:	01 00 00 00 	nop 
    1a44:	01 00 00 00 	nop 
    1a48:	01 00 00 00 	nop 
    1a4c:	01 00 00 00 	nop 
    1a50:	01 00 00 00 	nop 
    1a54:	01 00 00 00 	nop 
    1a58:	01 00 00 00 	nop 
    1a5c:	01 00 00 00 	nop 
    1a60:	01 00 00 00 	nop 
    1a64:	01 00 00 00 	nop 
    1a68:	01 00 00 00 	nop 
    1a6c:	01 00 00 00 	nop 
    1a70:	01 00 00 00 	nop 
    1a74:	01 00 00 00 	nop 
    1a78:	01 00 00 00 	nop 
    1a7c:	01 00 00 00 	nop 
    1a80:	01 00 00 00 	nop 
    1a84:	01 00 00 00 	nop 
    1a88:	01 00 00 00 	nop 
    1a8c:	01 00 00 00 	nop 
    1a90:	01 00 00 00 	nop 
    1a94:	01 00 00 00 	nop 
    1a98:	01 00 00 00 	nop 
    1a9c:	01 00 00 00 	nop 
    1aa0:	01 00 00 00 	nop 
    1aa4:	01 00 00 00 	nop 
    1aa8:	01 00 00 00 	nop 
    1aac:	01 00 00 00 	nop 
    1ab0:	01 00 00 00 	nop 
    1ab4:	01 00 00 00 	nop 
    1ab8:	01 00 00 00 	nop 
    1abc:	01 00 00 00 	nop 
    1ac0:	01 00 00 00 	nop 
    1ac4:	01 00 00 00 	nop 
    1ac8:	01 00 00 00 	nop 
    1acc:	01 00 00 00 	nop 
    1ad0:	01 00 00 00 	nop 
    1ad4:	01 00 00 00 	nop 
    1ad8:	01 00 00 00 	nop 
    1adc:	01 00 00 00 	nop 
    1ae0:	01 00 00 00 	nop 
    1ae4:	01 00 00 00 	nop 
    1ae8:	01 00 00 00 	nop 
    1aec:	01 00 00 00 	nop 
    1af0:	01 00 00 00 	nop 
    1af4:	01 00 00 00 	nop 
    1af8:	01 00 00 00 	nop 
    1afc:	01 00 00 00 	nop 
    1b00:	01 00 00 00 	nop 
    1b04:	01 00 00 00 	nop 
    1b08:	01 00 00 00 	nop 
    1b0c:	01 00 00 00 	nop 
    1b10:	01 00 00 00 	nop 
    1b14:	01 00 00 00 	nop 
    1b18:	01 00 00 00 	nop 
    1b1c:	01 00 00 00 	nop 
    1b20:	01 00 00 00 	nop 
    1b24:	01 00 00 00 	nop 
    1b28:	01 00 00 00 	nop 
    1b2c:	01 00 00 00 	nop 
    1b30:	01 00 00 00 	nop 
    1b34:	01 00 00 00 	nop 
    1b38:	01 00 00 00 	nop 
    1b3c:	01 00 00 00 	nop 
    1b40:	01 00 00 00 	nop 
    1b44:	01 00 00 00 	nop 
    1b48:	01 00 00 00 	nop 
    1b4c:	01 00 00 00 	nop 
    1b50:	01 00 00 00 	nop 
    1b54:	01 00 00 00 	nop 
    1b58:	01 00 00 00 	nop 
    1b5c:	01 00 00 00 	nop 
    1b60:	01 00 00 00 	nop 
    1b64:	01 00 00 00 	nop 
    1b68:	01 00 00 00 	nop 
    1b6c:	01 00 00 00 	nop 
    1b70:	01 00 00 00 	nop 
    1b74:	01 00 00 00 	nop 
    1b78:	01 00 00 00 	nop 
    1b7c:	01 00 00 00 	nop 
    1b80:	01 00 00 00 	nop 
    1b84:	01 00 00 00 	nop 
    1b88:	01 00 00 00 	nop 
    1b8c:	01 00 00 00 	nop 
    1b90:	01 00 00 00 	nop 
    1b94:	01 00 00 00 	nop 
    1b98:	01 00 00 00 	nop 
    1b9c:	01 00 00 00 	nop 
    1ba0:	01 00 00 00 	nop 
    1ba4:	01 00 00 00 	nop 
    1ba8:	01 00 00 00 	nop 
    1bac:	01 00 00 00 	nop 
    1bb0:	01 00 00 00 	nop 
    1bb4:	01 00 00 00 	nop 
    1bb8:	01 00 00 00 	nop 
    1bbc:	01 00 00 00 	nop 
    1bc0:	01 00 00 00 	nop 
    1bc4:	01 00 00 00 	nop 
    1bc8:	01 00 00 00 	nop 
    1bcc:	01 00 00 00 	nop 
    1bd0:	01 00 00 00 	nop 
    1bd4:	01 00 00 00 	nop 
    1bd8:	01 00 00 00 	nop 
    1bdc:	01 00 00 00 	nop 
    1be0:	01 00 00 00 	nop 
    1be4:	01 00 00 00 	nop 
    1be8:	01 00 00 00 	nop 
    1bec:	01 00 00 00 	nop 
    1bf0:	01 00 00 00 	nop 
    1bf4:	01 00 00 00 	nop 
    1bf8:	01 00 00 00 	nop 
    1bfc:	01 00 00 00 	nop 

00001c00 <PAGE_TABLE_BASE>:
	...

00002000 <window_overflow_trap_handler>:
    2000:	a7 50 00 00 	rd  %wim, %l3
    2004:	a9 2c e0 07 	sll  %l3, 7, %l4
    2008:	a7 34 e0 01 	srl  %l3, 1, %l3
    200c:	a6 14 c0 14 	or  %l3, %l4, %l3
    2010:	a6 0c e0 ff 	and  %l3, 0xff, %l3
    2014:	81 90 00 00 	mov  %g0, %wim
    2018:	01 00 00 00 	nop 
    201c:	01 00 00 00 	nop 
    2020:	01 00 00 00 	nop 
    2024:	81 e0 00 00 	save 
    2028:	e0 3b a0 00 	std  %l0, [ %sp ]
    202c:	e4 3b a0 08 	std  %l2, [ %sp + 8 ]
    2030:	e8 3b a0 10 	std  %l4, [ %sp + 0x10 ]
    2034:	ec 3b a0 18 	std  %l6, [ %sp + 0x18 ]
    2038:	f0 3b a0 20 	std  %i0, [ %sp + 0x20 ]
    203c:	f4 3b a0 28 	std  %i2, [ %sp + 0x28 ]
    2040:	f8 3b a0 30 	std  %i4, [ %sp + 0x30 ]
    2044:	fc 3b a0 38 	std  %fp, [ %sp + 0x38 ]
    2048:	81 e8 00 00 	restore 
    204c:	81 90 00 13 	mov  %l3, %wim
    2050:	01 00 00 00 	nop 
    2054:	01 00 00 00 	nop 
    2058:	01 00 00 00 	nop 
    205c:	81 c4 40 00 	jmp  %l1
    2060:	81 cc 80 00 	rett  %l2

00002064 <window_underflow_trap_handler>:
    2064:	a7 50 00 00 	rd  %wim, %l3
    2068:	a9 34 e0 07 	srl  %l3, 7, %l4
    206c:	a7 2c e0 01 	sll  %l3, 1, %l3
    2070:	a6 14 c0 14 	or  %l3, %l4, %l3
    2074:	a6 0c e0 ff 	and  %l3, 0xff, %l3
    2078:	81 90 00 00 	mov  %g0, %wim
    207c:	01 00 00 00 	nop 
    2080:	01 00 00 00 	nop 
    2084:	01 00 00 00 	nop 
    2088:	81 e8 00 00 	restore 
    208c:	81 e8 00 00 	restore 
    2090:	e0 1b a0 00 	ldd  [ %sp ], %l0
    2094:	e4 1b a0 08 	ldd  [ %sp + 8 ], %l2
    2098:	e8 1b a0 10 	ldd  [ %sp + 0x10 ], %l4
    209c:	ec 1b a0 18 	ldd  [ %sp + 0x18 ], %l6
    20a0:	f0 1b a0 20 	ldd  [ %sp + 0x20 ], %i0
    20a4:	f4 1b a0 28 	ldd  [ %sp + 0x28 ], %i2
    20a8:	f8 1b a0 30 	ldd  [ %sp + 0x30 ], %i4
    20ac:	fc 1b a0 38 	ldd  [ %sp + 0x38 ], %fp
    20b0:	81 e0 00 00 	save 
    20b4:	81 e0 00 00 	save 
    20b8:	81 90 00 13 	mov  %l3, %wim
    20bc:	01 00 00 00 	nop 
    20c0:	01 00 00 00 	nop 
    20c4:	01 00 00 00 	nop 
    20c8:	81 c4 40 00 	jmp  %l1
    20cc:	81 cc 80 00 	rett  %l2
    20d0:	01 00 00 00 	nop 
    20d4:	01 00 00 00 	nop 
    20d8:	01 00 00 00 	nop 
    20dc:	01 00 00 00 	nop 
    20e0:	01 00 00 00 	nop 
    20e4:	01 00 00 00 	nop 
    20e8:	01 00 00 00 	nop 
    20ec:	01 00 00 00 	nop 
    20f0:	01 00 00 00 	nop 
    20f4:	01 00 00 00 	nop 
    20f8:	01 00 00 00 	nop 
    20fc:	01 00 00 00 	nop 
    2100:	01 00 00 00 	nop 
    2104:	01 00 00 00 	nop 
    2108:	01 00 00 00 	nop 
    210c:	01 00 00 00 	nop 
    2110:	01 00 00 00 	nop 
    2114:	01 00 00 00 	nop 
    2118:	01 00 00 00 	nop 
    211c:	01 00 00 00 	nop 
    2120:	01 00 00 00 	nop 
    2124:	01 00 00 00 	nop 
    2128:	01 00 00 00 	nop 
    212c:	01 00 00 00 	nop 
    2130:	01 00 00 00 	nop 
    2134:	01 00 00 00 	nop 
    2138:	01 00 00 00 	nop 
    213c:	01 00 00 00 	nop 
    2140:	01 00 00 00 	nop 
    2144:	01 00 00 00 	nop 
    2148:	01 00 00 00 	nop 
    214c:	01 00 00 00 	nop 
    2150:	01 00 00 00 	nop 
    2154:	01 00 00 00 	nop 
    2158:	01 00 00 00 	nop 
    215c:	01 00 00 00 	nop 
    2160:	01 00 00 00 	nop 
    2164:	01 00 00 00 	nop 
    2168:	01 00 00 00 	nop 
    216c:	01 00 00 00 	nop 
    2170:	01 00 00 00 	nop 
    2174:	01 00 00 00 	nop 
    2178:	01 00 00 00 	nop 
    217c:	01 00 00 00 	nop 
    2180:	01 00 00 00 	nop 
    2184:	01 00 00 00 	nop 
    2188:	01 00 00 00 	nop 
    218c:	01 00 00 00 	nop 
    2190:	01 00 00 00 	nop 
    2194:	01 00 00 00 	nop 
    2198:	01 00 00 00 	nop 
    219c:	01 00 00 00 	nop 
    21a0:	01 00 00 00 	nop 
    21a4:	01 00 00 00 	nop 
    21a8:	01 00 00 00 	nop 
    21ac:	01 00 00 00 	nop 
    21b0:	01 00 00 00 	nop 
    21b4:	01 00 00 00 	nop 
    21b8:	01 00 00 00 	nop 
    21bc:	01 00 00 00 	nop 
    21c0:	01 00 00 00 	nop 
    21c4:	01 00 00 00 	nop 
    21c8:	01 00 00 00 	nop 
    21cc:	01 00 00 00 	nop 
    21d0:	01 00 00 00 	nop 
    21d4:	01 00 00 00 	nop 
    21d8:	01 00 00 00 	nop 
    21dc:	01 00 00 00 	nop 
    21e0:	01 00 00 00 	nop 
    21e4:	01 00 00 00 	nop 
    21e8:	01 00 00 00 	nop 
    21ec:	01 00 00 00 	nop 
    21f0:	01 00 00 00 	nop 
    21f4:	01 00 00 00 	nop 
    21f8:	01 00 00 00 	nop 
    21fc:	01 00 00 00 	nop 
    2200:	01 00 00 00 	nop 
    2204:	01 00 00 00 	nop 
    2208:	01 00 00 00 	nop 
    220c:	01 00 00 00 	nop 
    2210:	01 00 00 00 	nop 
    2214:	01 00 00 00 	nop 
    2218:	01 00 00 00 	nop 
    221c:	01 00 00 00 	nop 
    2220:	01 00 00 00 	nop 
    2224:	01 00 00 00 	nop 
    2228:	01 00 00 00 	nop 
    222c:	01 00 00 00 	nop 
    2230:	01 00 00 00 	nop 
    2234:	01 00 00 00 	nop 
    2238:	01 00 00 00 	nop 
    223c:	01 00 00 00 	nop 
    2240:	01 00 00 00 	nop 
    2244:	01 00 00 00 	nop 
    2248:	01 00 00 00 	nop 
    224c:	01 00 00 00 	nop 
    2250:	01 00 00 00 	nop 
    2254:	01 00 00 00 	nop 
    2258:	01 00 00 00 	nop 
    225c:	01 00 00 00 	nop 
    2260:	01 00 00 00 	nop 
    2264:	01 00 00 00 	nop 
    2268:	01 00 00 00 	nop 
    226c:	01 00 00 00 	nop 
    2270:	01 00 00 00 	nop 
    2274:	01 00 00 00 	nop 
    2278:	01 00 00 00 	nop 
    227c:	01 00 00 00 	nop 
    2280:	01 00 00 00 	nop 
    2284:	01 00 00 00 	nop 
    2288:	01 00 00 00 	nop 
    228c:	01 00 00 00 	nop 
    2290:	01 00 00 00 	nop 
    2294:	01 00 00 00 	nop 
    2298:	01 00 00 00 	nop 
    229c:	01 00 00 00 	nop 
    22a0:	01 00 00 00 	nop 
    22a4:	01 00 00 00 	nop 
    22a8:	01 00 00 00 	nop 
    22ac:	01 00 00 00 	nop 
    22b0:	01 00 00 00 	nop 
    22b4:	01 00 00 00 	nop 
    22b8:	01 00 00 00 	nop 
    22bc:	01 00 00 00 	nop 
    22c0:	01 00 00 00 	nop 
    22c4:	01 00 00 00 	nop 
    22c8:	01 00 00 00 	nop 
    22cc:	01 00 00 00 	nop 
    22d0:	01 00 00 00 	nop 
    22d4:	01 00 00 00 	nop 
    22d8:	01 00 00 00 	nop 
    22dc:	01 00 00 00 	nop 
    22e0:	01 00 00 00 	nop 
    22e4:	01 00 00 00 	nop 
    22e8:	01 00 00 00 	nop 
    22ec:	01 00 00 00 	nop 
    22f0:	01 00 00 00 	nop 
    22f4:	01 00 00 00 	nop 
    22f8:	01 00 00 00 	nop 
    22fc:	01 00 00 00 	nop 
    2300:	01 00 00 00 	nop 
    2304:	01 00 00 00 	nop 
    2308:	01 00 00 00 	nop 
    230c:	01 00 00 00 	nop 
    2310:	01 00 00 00 	nop 
    2314:	01 00 00 00 	nop 
    2318:	01 00 00 00 	nop 
    231c:	01 00 00 00 	nop 
    2320:	01 00 00 00 	nop 
    2324:	01 00 00 00 	nop 
    2328:	01 00 00 00 	nop 
    232c:	01 00 00 00 	nop 
    2330:	01 00 00 00 	nop 
    2334:	01 00 00 00 	nop 
    2338:	01 00 00 00 	nop 
    233c:	01 00 00 00 	nop 
    2340:	01 00 00 00 	nop 
    2344:	01 00 00 00 	nop 
    2348:	01 00 00 00 	nop 
    234c:	01 00 00 00 	nop 
    2350:	01 00 00 00 	nop 
    2354:	01 00 00 00 	nop 
    2358:	01 00 00 00 	nop 
    235c:	01 00 00 00 	nop 
    2360:	01 00 00 00 	nop 
    2364:	01 00 00 00 	nop 
    2368:	01 00 00 00 	nop 
    236c:	01 00 00 00 	nop 
    2370:	01 00 00 00 	nop 
    2374:	01 00 00 00 	nop 
    2378:	01 00 00 00 	nop 
    237c:	01 00 00 00 	nop 
    2380:	01 00 00 00 	nop 
    2384:	01 00 00 00 	nop 
    2388:	01 00 00 00 	nop 
    238c:	01 00 00 00 	nop 
    2390:	01 00 00 00 	nop 
    2394:	01 00 00 00 	nop 
    2398:	01 00 00 00 	nop 
    239c:	01 00 00 00 	nop 
    23a0:	01 00 00 00 	nop 
    23a4:	01 00 00 00 	nop 
    23a8:	01 00 00 00 	nop 
    23ac:	01 00 00 00 	nop 
    23b0:	01 00 00 00 	nop 
    23b4:	01 00 00 00 	nop 
    23b8:	01 00 00 00 	nop 
    23bc:	01 00 00 00 	nop 
    23c0:	01 00 00 00 	nop 
    23c4:	01 00 00 00 	nop 
    23c8:	01 00 00 00 	nop 
    23cc:	01 00 00 00 	nop 
    23d0:	01 00 00 00 	nop 
    23d4:	01 00 00 00 	nop 
    23d8:	01 00 00 00 	nop 
    23dc:	01 00 00 00 	nop 
    23e0:	01 00 00 00 	nop 
    23e4:	01 00 00 00 	nop 
    23e8:	01 00 00 00 	nop 
    23ec:	01 00 00 00 	nop 
    23f0:	01 00 00 00 	nop 
    23f4:	01 00 00 00 	nop 
    23f8:	01 00 00 00 	nop 
    23fc:	01 00 00 00 	nop 
    2400:	01 00 00 00 	nop 
    2404:	01 00 00 00 	nop 
    2408:	01 00 00 00 	nop 
    240c:	01 00 00 00 	nop 
    2410:	01 00 00 00 	nop 
    2414:	01 00 00 00 	nop 
    2418:	01 00 00 00 	nop 
    241c:	01 00 00 00 	nop 
    2420:	01 00 00 00 	nop 
    2424:	01 00 00 00 	nop 
    2428:	01 00 00 00 	nop 
    242c:	01 00 00 00 	nop 
    2430:	01 00 00 00 	nop 
    2434:	01 00 00 00 	nop 
    2438:	01 00 00 00 	nop 
    243c:	01 00 00 00 	nop 
    2440:	01 00 00 00 	nop 
    2444:	01 00 00 00 	nop 
    2448:	01 00 00 00 	nop 
    244c:	01 00 00 00 	nop 
    2450:	01 00 00 00 	nop 
    2454:	01 00 00 00 	nop 
    2458:	01 00 00 00 	nop 
    245c:	01 00 00 00 	nop 
    2460:	01 00 00 00 	nop 
    2464:	01 00 00 00 	nop 
    2468:	01 00 00 00 	nop 
    246c:	01 00 00 00 	nop 
    2470:	01 00 00 00 	nop 
    2474:	01 00 00 00 	nop 
    2478:	01 00 00 00 	nop 
    247c:	01 00 00 00 	nop 
    2480:	01 00 00 00 	nop 
    2484:	01 00 00 00 	nop 
    2488:	01 00 00 00 	nop 
    248c:	01 00 00 00 	nop 
    2490:	01 00 00 00 	nop 
    2494:	01 00 00 00 	nop 
    2498:	01 00 00 00 	nop 
    249c:	01 00 00 00 	nop 
    24a0:	01 00 00 00 	nop 
    24a4:	01 00 00 00 	nop 
    24a8:	01 00 00 00 	nop 
    24ac:	01 00 00 00 	nop 
    24b0:	01 00 00 00 	nop 
    24b4:	01 00 00 00 	nop 
    24b8:	01 00 00 00 	nop 
    24bc:	01 00 00 00 	nop 
    24c0:	01 00 00 00 	nop 
    24c4:	01 00 00 00 	nop 
    24c8:	01 00 00 00 	nop 
    24cc:	01 00 00 00 	nop 
    24d0:	01 00 00 00 	nop 
    24d4:	01 00 00 00 	nop 
    24d8:	01 00 00 00 	nop 
    24dc:	01 00 00 00 	nop 
    24e0:	01 00 00 00 	nop 
    24e4:	01 00 00 00 	nop 
    24e8:	01 00 00 00 	nop 
    24ec:	01 00 00 00 	nop 
    24f0:	01 00 00 00 	nop 
    24f4:	01 00 00 00 	nop 
    24f8:	01 00 00 00 	nop 
    24fc:	01 00 00 00 	nop 
    2500:	01 00 00 00 	nop 
    2504:	01 00 00 00 	nop 
    2508:	01 00 00 00 	nop 
    250c:	01 00 00 00 	nop 
    2510:	01 00 00 00 	nop 
    2514:	01 00 00 00 	nop 
    2518:	01 00 00 00 	nop 
    251c:	01 00 00 00 	nop 
    2520:	01 00 00 00 	nop 
    2524:	01 00 00 00 	nop 
    2528:	01 00 00 00 	nop 
    252c:	01 00 00 00 	nop 
    2530:	01 00 00 00 	nop 
    2534:	01 00 00 00 	nop 
    2538:	01 00 00 00 	nop 
    253c:	01 00 00 00 	nop 
    2540:	01 00 00 00 	nop 
    2544:	01 00 00 00 	nop 
    2548:	01 00 00 00 	nop 
    254c:	01 00 00 00 	nop 
    2550:	01 00 00 00 	nop 
    2554:	01 00 00 00 	nop 
    2558:	01 00 00 00 	nop 
    255c:	01 00 00 00 	nop 
    2560:	01 00 00 00 	nop 
    2564:	01 00 00 00 	nop 
    2568:	01 00 00 00 	nop 
    256c:	01 00 00 00 	nop 
    2570:	01 00 00 00 	nop 
    2574:	01 00 00 00 	nop 
    2578:	01 00 00 00 	nop 
    257c:	01 00 00 00 	nop 
    2580:	01 00 00 00 	nop 
    2584:	01 00 00 00 	nop 
    2588:	01 00 00 00 	nop 
    258c:	01 00 00 00 	nop 
    2590:	01 00 00 00 	nop 
    2594:	01 00 00 00 	nop 
    2598:	01 00 00 00 	nop 
    259c:	01 00 00 00 	nop 
    25a0:	01 00 00 00 	nop 
    25a4:	01 00 00 00 	nop 
    25a8:	01 00 00 00 	nop 
    25ac:	01 00 00 00 	nop 
    25b0:	01 00 00 00 	nop 
    25b4:	01 00 00 00 	nop 
    25b8:	01 00 00 00 	nop 
    25bc:	01 00 00 00 	nop 
    25c0:	01 00 00 00 	nop 
    25c4:	01 00 00 00 	nop 
    25c8:	01 00 00 00 	nop 
    25cc:	01 00 00 00 	nop 
    25d0:	01 00 00 00 	nop 
    25d4:	01 00 00 00 	nop 
    25d8:	01 00 00 00 	nop 
    25dc:	01 00 00 00 	nop 
    25e0:	01 00 00 00 	nop 
    25e4:	01 00 00 00 	nop 
    25e8:	01 00 00 00 	nop 
    25ec:	01 00 00 00 	nop 
    25f0:	01 00 00 00 	nop 
    25f4:	01 00 00 00 	nop 
    25f8:	01 00 00 00 	nop 
    25fc:	01 00 00 00 	nop 
    2600:	01 00 00 00 	nop 
    2604:	01 00 00 00 	nop 
    2608:	01 00 00 00 	nop 
    260c:	01 00 00 00 	nop 
    2610:	01 00 00 00 	nop 
    2614:	01 00 00 00 	nop 
    2618:	01 00 00 00 	nop 
    261c:	01 00 00 00 	nop 
    2620:	01 00 00 00 	nop 
    2624:	01 00 00 00 	nop 
    2628:	01 00 00 00 	nop 
    262c:	01 00 00 00 	nop 
    2630:	01 00 00 00 	nop 
    2634:	01 00 00 00 	nop 
    2638:	01 00 00 00 	nop 
    263c:	01 00 00 00 	nop 
    2640:	01 00 00 00 	nop 
    2644:	01 00 00 00 	nop 
    2648:	01 00 00 00 	nop 
    264c:	01 00 00 00 	nop 
    2650:	01 00 00 00 	nop 
    2654:	01 00 00 00 	nop 
    2658:	01 00 00 00 	nop 
    265c:	01 00 00 00 	nop 
    2660:	01 00 00 00 	nop 
    2664:	01 00 00 00 	nop 
    2668:	01 00 00 00 	nop 
    266c:	01 00 00 00 	nop 
    2670:	01 00 00 00 	nop 
    2674:	01 00 00 00 	nop 
    2678:	01 00 00 00 	nop 
    267c:	01 00 00 00 	nop 
    2680:	01 00 00 00 	nop 
    2684:	01 00 00 00 	nop 
    2688:	01 00 00 00 	nop 
    268c:	01 00 00 00 	nop 
    2690:	01 00 00 00 	nop 
    2694:	01 00 00 00 	nop 
    2698:	01 00 00 00 	nop 
    269c:	01 00 00 00 	nop 
    26a0:	01 00 00 00 	nop 
    26a4:	01 00 00 00 	nop 
    26a8:	01 00 00 00 	nop 
    26ac:	01 00 00 00 	nop 
    26b0:	01 00 00 00 	nop 
    26b4:	01 00 00 00 	nop 
    26b8:	01 00 00 00 	nop 
    26bc:	01 00 00 00 	nop 
    26c0:	01 00 00 00 	nop 
    26c4:	01 00 00 00 	nop 
    26c8:	01 00 00 00 	nop 
    26cc:	01 00 00 00 	nop 
    26d0:	01 00 00 00 	nop 
    26d4:	01 00 00 00 	nop 
    26d8:	01 00 00 00 	nop 
    26dc:	01 00 00 00 	nop 
    26e0:	01 00 00 00 	nop 
    26e4:	01 00 00 00 	nop 
    26e8:	01 00 00 00 	nop 
    26ec:	01 00 00 00 	nop 
    26f0:	01 00 00 00 	nop 
    26f4:	01 00 00 00 	nop 
    26f8:	01 00 00 00 	nop 
    26fc:	01 00 00 00 	nop 
    2700:	01 00 00 00 	nop 
    2704:	01 00 00 00 	nop 
    2708:	01 00 00 00 	nop 
    270c:	01 00 00 00 	nop 
    2710:	01 00 00 00 	nop 
    2714:	01 00 00 00 	nop 
    2718:	01 00 00 00 	nop 
    271c:	01 00 00 00 	nop 
    2720:	01 00 00 00 	nop 
    2724:	01 00 00 00 	nop 
    2728:	01 00 00 00 	nop 
    272c:	01 00 00 00 	nop 
    2730:	01 00 00 00 	nop 
    2734:	01 00 00 00 	nop 
    2738:	01 00 00 00 	nop 
    273c:	01 00 00 00 	nop 
    2740:	01 00 00 00 	nop 
    2744:	01 00 00 00 	nop 
    2748:	01 00 00 00 	nop 
    274c:	01 00 00 00 	nop 
    2750:	01 00 00 00 	nop 
    2754:	01 00 00 00 	nop 
    2758:	01 00 00 00 	nop 
    275c:	01 00 00 00 	nop 
    2760:	01 00 00 00 	nop 
    2764:	01 00 00 00 	nop 
    2768:	01 00 00 00 	nop 
    276c:	01 00 00 00 	nop 
    2770:	01 00 00 00 	nop 
    2774:	01 00 00 00 	nop 
    2778:	01 00 00 00 	nop 
    277c:	01 00 00 00 	nop 
    2780:	01 00 00 00 	nop 
    2784:	01 00 00 00 	nop 
    2788:	01 00 00 00 	nop 
    278c:	01 00 00 00 	nop 
    2790:	01 00 00 00 	nop 
    2794:	01 00 00 00 	nop 
    2798:	01 00 00 00 	nop 
    279c:	01 00 00 00 	nop 
    27a0:	01 00 00 00 	nop 
    27a4:	01 00 00 00 	nop 
    27a8:	01 00 00 00 	nop 
    27ac:	01 00 00 00 	nop 
    27b0:	01 00 00 00 	nop 
    27b4:	01 00 00 00 	nop 
    27b8:	01 00 00 00 	nop 
    27bc:	01 00 00 00 	nop 
    27c0:	01 00 00 00 	nop 
    27c4:	01 00 00 00 	nop 
    27c8:	01 00 00 00 	nop 
    27cc:	01 00 00 00 	nop 
    27d0:	01 00 00 00 	nop 
    27d4:	01 00 00 00 	nop 
    27d8:	01 00 00 00 	nop 
    27dc:	01 00 00 00 	nop 
    27e0:	01 00 00 00 	nop 
    27e4:	01 00 00 00 	nop 
    27e8:	01 00 00 00 	nop 
    27ec:	01 00 00 00 	nop 
    27f0:	01 00 00 00 	nop 
    27f4:	01 00 00 00 	nop 
    27f8:	01 00 00 00 	nop 
    27fc:	01 00 00 00 	nop 
    2800:	01 00 00 00 	nop 
    2804:	01 00 00 00 	nop 
    2808:	01 00 00 00 	nop 
    280c:	01 00 00 00 	nop 
    2810:	01 00 00 00 	nop 
    2814:	01 00 00 00 	nop 
    2818:	01 00 00 00 	nop 
    281c:	01 00 00 00 	nop 
    2820:	01 00 00 00 	nop 
    2824:	01 00 00 00 	nop 
    2828:	01 00 00 00 	nop 
    282c:	01 00 00 00 	nop 
    2830:	01 00 00 00 	nop 
    2834:	01 00 00 00 	nop 
    2838:	01 00 00 00 	nop 
    283c:	01 00 00 00 	nop 
    2840:	01 00 00 00 	nop 
    2844:	01 00 00 00 	nop 
    2848:	01 00 00 00 	nop 
    284c:	01 00 00 00 	nop 
    2850:	01 00 00 00 	nop 
    2854:	01 00 00 00 	nop 
    2858:	01 00 00 00 	nop 
    285c:	01 00 00 00 	nop 
    2860:	01 00 00 00 	nop 
    2864:	01 00 00 00 	nop 
    2868:	01 00 00 00 	nop 
    286c:	01 00 00 00 	nop 
    2870:	01 00 00 00 	nop 
    2874:	01 00 00 00 	nop 
    2878:	01 00 00 00 	nop 
    287c:	01 00 00 00 	nop 
    2880:	01 00 00 00 	nop 
    2884:	01 00 00 00 	nop 
    2888:	01 00 00 00 	nop 
    288c:	01 00 00 00 	nop 
    2890:	01 00 00 00 	nop 
    2894:	01 00 00 00 	nop 
    2898:	01 00 00 00 	nop 
    289c:	01 00 00 00 	nop 
    28a0:	01 00 00 00 	nop 
    28a4:	01 00 00 00 	nop 
    28a8:	01 00 00 00 	nop 
    28ac:	01 00 00 00 	nop 
    28b0:	01 00 00 00 	nop 
    28b4:	01 00 00 00 	nop 
    28b8:	01 00 00 00 	nop 
    28bc:	01 00 00 00 	nop 
    28c0:	01 00 00 00 	nop 
    28c4:	01 00 00 00 	nop 
    28c8:	01 00 00 00 	nop 
    28cc:	01 00 00 00 	nop 
    28d0:	01 00 00 00 	nop 
    28d4:	01 00 00 00 	nop 
    28d8:	01 00 00 00 	nop 
    28dc:	01 00 00 00 	nop 
    28e0:	01 00 00 00 	nop 
    28e4:	01 00 00 00 	nop 
    28e8:	01 00 00 00 	nop 
    28ec:	01 00 00 00 	nop 
    28f0:	01 00 00 00 	nop 
    28f4:	01 00 00 00 	nop 
    28f8:	01 00 00 00 	nop 
    28fc:	01 00 00 00 	nop 
    2900:	01 00 00 00 	nop 
    2904:	01 00 00 00 	nop 
    2908:	01 00 00 00 	nop 
    290c:	01 00 00 00 	nop 
    2910:	01 00 00 00 	nop 
    2914:	01 00 00 00 	nop 
    2918:	01 00 00 00 	nop 
    291c:	01 00 00 00 	nop 
    2920:	01 00 00 00 	nop 
    2924:	01 00 00 00 	nop 
    2928:	01 00 00 00 	nop 
    292c:	01 00 00 00 	nop 
    2930:	01 00 00 00 	nop 
    2934:	01 00 00 00 	nop 
    2938:	01 00 00 00 	nop 
    293c:	01 00 00 00 	nop 
    2940:	01 00 00 00 	nop 
    2944:	01 00 00 00 	nop 
    2948:	01 00 00 00 	nop 
    294c:	01 00 00 00 	nop 
    2950:	01 00 00 00 	nop 
    2954:	01 00 00 00 	nop 
    2958:	01 00 00 00 	nop 
    295c:	01 00 00 00 	nop 
    2960:	01 00 00 00 	nop 
    2964:	01 00 00 00 	nop 
    2968:	01 00 00 00 	nop 
    296c:	01 00 00 00 	nop 
    2970:	01 00 00 00 	nop 
    2974:	01 00 00 00 	nop 
    2978:	01 00 00 00 	nop 
    297c:	01 00 00 00 	nop 
    2980:	01 00 00 00 	nop 
    2984:	01 00 00 00 	nop 
    2988:	01 00 00 00 	nop 
    298c:	01 00 00 00 	nop 
    2990:	01 00 00 00 	nop 
    2994:	01 00 00 00 	nop 
    2998:	01 00 00 00 	nop 
    299c:	01 00 00 00 	nop 
    29a0:	01 00 00 00 	nop 
    29a4:	01 00 00 00 	nop 
    29a8:	01 00 00 00 	nop 
    29ac:	01 00 00 00 	nop 
    29b0:	01 00 00 00 	nop 
    29b4:	01 00 00 00 	nop 
    29b8:	01 00 00 00 	nop 
    29bc:	01 00 00 00 	nop 
    29c0:	01 00 00 00 	nop 
    29c4:	01 00 00 00 	nop 
    29c8:	01 00 00 00 	nop 
    29cc:	01 00 00 00 	nop 
    29d0:	01 00 00 00 	nop 
    29d4:	01 00 00 00 	nop 
    29d8:	01 00 00 00 	nop 
    29dc:	01 00 00 00 	nop 
    29e0:	01 00 00 00 	nop 
    29e4:	01 00 00 00 	nop 
    29e8:	01 00 00 00 	nop 
    29ec:	01 00 00 00 	nop 
    29f0:	01 00 00 00 	nop 
    29f4:	01 00 00 00 	nop 
    29f8:	01 00 00 00 	nop 
    29fc:	01 00 00 00 	nop 
    2a00:	01 00 00 00 	nop 
    2a04:	01 00 00 00 	nop 
    2a08:	01 00 00 00 	nop 
    2a0c:	01 00 00 00 	nop 
    2a10:	01 00 00 00 	nop 
    2a14:	01 00 00 00 	nop 
    2a18:	01 00 00 00 	nop 
    2a1c:	01 00 00 00 	nop 
    2a20:	01 00 00 00 	nop 
    2a24:	01 00 00 00 	nop 
    2a28:	01 00 00 00 	nop 
    2a2c:	01 00 00 00 	nop 
    2a30:	01 00 00 00 	nop 
    2a34:	01 00 00 00 	nop 
    2a38:	01 00 00 00 	nop 
    2a3c:	01 00 00 00 	nop 
    2a40:	01 00 00 00 	nop 
    2a44:	01 00 00 00 	nop 
    2a48:	01 00 00 00 	nop 
    2a4c:	01 00 00 00 	nop 
    2a50:	01 00 00 00 	nop 
    2a54:	01 00 00 00 	nop 
    2a58:	01 00 00 00 	nop 
    2a5c:	01 00 00 00 	nop 
    2a60:	01 00 00 00 	nop 
    2a64:	01 00 00 00 	nop 
    2a68:	01 00 00 00 	nop 
    2a6c:	01 00 00 00 	nop 
    2a70:	01 00 00 00 	nop 
    2a74:	01 00 00 00 	nop 
    2a78:	01 00 00 00 	nop 
    2a7c:	01 00 00 00 	nop 
    2a80:	01 00 00 00 	nop 
    2a84:	01 00 00 00 	nop 
    2a88:	01 00 00 00 	nop 
    2a8c:	01 00 00 00 	nop 
    2a90:	01 00 00 00 	nop 
    2a94:	01 00 00 00 	nop 
    2a98:	01 00 00 00 	nop 
    2a9c:	01 00 00 00 	nop 
    2aa0:	01 00 00 00 	nop 
    2aa4:	01 00 00 00 	nop 
    2aa8:	01 00 00 00 	nop 
    2aac:	01 00 00 00 	nop 
    2ab0:	01 00 00 00 	nop 
    2ab4:	01 00 00 00 	nop 
    2ab8:	01 00 00 00 	nop 
    2abc:	01 00 00 00 	nop 
    2ac0:	01 00 00 00 	nop 
    2ac4:	01 00 00 00 	nop 
    2ac8:	01 00 00 00 	nop 
    2acc:	01 00 00 00 	nop 
    2ad0:	01 00 00 00 	nop 
    2ad4:	01 00 00 00 	nop 
    2ad8:	01 00 00 00 	nop 
    2adc:	01 00 00 00 	nop 
    2ae0:	01 00 00 00 	nop 
    2ae4:	01 00 00 00 	nop 
    2ae8:	01 00 00 00 	nop 
    2aec:	01 00 00 00 	nop 
    2af0:	01 00 00 00 	nop 
    2af4:	01 00 00 00 	nop 
    2af8:	01 00 00 00 	nop 
    2afc:	01 00 00 00 	nop 
    2b00:	01 00 00 00 	nop 
    2b04:	01 00 00 00 	nop 
    2b08:	01 00 00 00 	nop 
    2b0c:	01 00 00 00 	nop 
    2b10:	01 00 00 00 	nop 
    2b14:	01 00 00 00 	nop 
    2b18:	01 00 00 00 	nop 
    2b1c:	01 00 00 00 	nop 
    2b20:	01 00 00 00 	nop 
    2b24:	01 00 00 00 	nop 
    2b28:	01 00 00 00 	nop 
    2b2c:	01 00 00 00 	nop 
    2b30:	01 00 00 00 	nop 
    2b34:	01 00 00 00 	nop 
    2b38:	01 00 00 00 	nop 
    2b3c:	01 00 00 00 	nop 
    2b40:	01 00 00 00 	nop 
    2b44:	01 00 00 00 	nop 
    2b48:	01 00 00 00 	nop 
    2b4c:	01 00 00 00 	nop 
    2b50:	01 00 00 00 	nop 
    2b54:	01 00 00 00 	nop 
    2b58:	01 00 00 00 	nop 
    2b5c:	01 00 00 00 	nop 
    2b60:	01 00 00 00 	nop 
    2b64:	01 00 00 00 	nop 
    2b68:	01 00 00 00 	nop 
    2b6c:	01 00 00 00 	nop 
    2b70:	01 00 00 00 	nop 
    2b74:	01 00 00 00 	nop 
    2b78:	01 00 00 00 	nop 
    2b7c:	01 00 00 00 	nop 
    2b80:	01 00 00 00 	nop 
    2b84:	01 00 00 00 	nop 
    2b88:	01 00 00 00 	nop 
    2b8c:	01 00 00 00 	nop 
    2b90:	01 00 00 00 	nop 
    2b94:	01 00 00 00 	nop 
    2b98:	01 00 00 00 	nop 
    2b9c:	01 00 00 00 	nop 
    2ba0:	01 00 00 00 	nop 
    2ba4:	01 00 00 00 	nop 
    2ba8:	01 00 00 00 	nop 
    2bac:	01 00 00 00 	nop 
    2bb0:	01 00 00 00 	nop 
    2bb4:	01 00 00 00 	nop 
    2bb8:	01 00 00 00 	nop 
    2bbc:	01 00 00 00 	nop 
    2bc0:	01 00 00 00 	nop 
    2bc4:	01 00 00 00 	nop 
    2bc8:	01 00 00 00 	nop 
    2bcc:	01 00 00 00 	nop 
    2bd0:	01 00 00 00 	nop 
    2bd4:	01 00 00 00 	nop 
    2bd8:	01 00 00 00 	nop 
    2bdc:	01 00 00 00 	nop 
    2be0:	01 00 00 00 	nop 
    2be4:	01 00 00 00 	nop 
    2be8:	01 00 00 00 	nop 
    2bec:	01 00 00 00 	nop 
    2bf0:	01 00 00 00 	nop 
    2bf4:	01 00 00 00 	nop 
    2bf8:	01 00 00 00 	nop 
    2bfc:	01 00 00 00 	nop 
    2c00:	01 00 00 00 	nop 
    2c04:	01 00 00 00 	nop 
    2c08:	01 00 00 00 	nop 
    2c0c:	01 00 00 00 	nop 
    2c10:	01 00 00 00 	nop 
    2c14:	01 00 00 00 	nop 
    2c18:	01 00 00 00 	nop 
    2c1c:	01 00 00 00 	nop 
    2c20:	01 00 00 00 	nop 
    2c24:	01 00 00 00 	nop 
    2c28:	01 00 00 00 	nop 
    2c2c:	01 00 00 00 	nop 
    2c30:	01 00 00 00 	nop 
    2c34:	01 00 00 00 	nop 
    2c38:	01 00 00 00 	nop 
    2c3c:	01 00 00 00 	nop 
    2c40:	01 00 00 00 	nop 
    2c44:	01 00 00 00 	nop 
    2c48:	01 00 00 00 	nop 
    2c4c:	01 00 00 00 	nop 
    2c50:	01 00 00 00 	nop 
    2c54:	01 00 00 00 	nop 
    2c58:	01 00 00 00 	nop 
    2c5c:	01 00 00 00 	nop 
    2c60:	01 00 00 00 	nop 
    2c64:	01 00 00 00 	nop 
    2c68:	01 00 00 00 	nop 
    2c6c:	01 00 00 00 	nop 
    2c70:	01 00 00 00 	nop 
    2c74:	01 00 00 00 	nop 
    2c78:	01 00 00 00 	nop 
    2c7c:	01 00 00 00 	nop 
    2c80:	01 00 00 00 	nop 
    2c84:	01 00 00 00 	nop 
    2c88:	01 00 00 00 	nop 
    2c8c:	01 00 00 00 	nop 
    2c90:	01 00 00 00 	nop 
    2c94:	01 00 00 00 	nop 
    2c98:	01 00 00 00 	nop 
    2c9c:	01 00 00 00 	nop 
    2ca0:	01 00 00 00 	nop 
    2ca4:	01 00 00 00 	nop 
    2ca8:	01 00 00 00 	nop 
    2cac:	01 00 00 00 	nop 
    2cb0:	01 00 00 00 	nop 
    2cb4:	01 00 00 00 	nop 
    2cb8:	01 00 00 00 	nop 
    2cbc:	01 00 00 00 	nop 
    2cc0:	01 00 00 00 	nop 
    2cc4:	01 00 00 00 	nop 
    2cc8:	01 00 00 00 	nop 
    2ccc:	01 00 00 00 	nop 
    2cd0:	01 00 00 00 	nop 
    2cd4:	01 00 00 00 	nop 
    2cd8:	01 00 00 00 	nop 
    2cdc:	01 00 00 00 	nop 
    2ce0:	01 00 00 00 	nop 
    2ce4:	01 00 00 00 	nop 
    2ce8:	01 00 00 00 	nop 
    2cec:	01 00 00 00 	nop 
    2cf0:	01 00 00 00 	nop 
    2cf4:	01 00 00 00 	nop 
    2cf8:	01 00 00 00 	nop 
    2cfc:	01 00 00 00 	nop 
    2d00:	01 00 00 00 	nop 
    2d04:	01 00 00 00 	nop 
    2d08:	01 00 00 00 	nop 
    2d0c:	01 00 00 00 	nop 
    2d10:	01 00 00 00 	nop 
    2d14:	01 00 00 00 	nop 
    2d18:	01 00 00 00 	nop 
    2d1c:	01 00 00 00 	nop 
    2d20:	01 00 00 00 	nop 
    2d24:	01 00 00 00 	nop 
    2d28:	01 00 00 00 	nop 
    2d2c:	01 00 00 00 	nop 
    2d30:	01 00 00 00 	nop 
    2d34:	01 00 00 00 	nop 
    2d38:	01 00 00 00 	nop 
    2d3c:	01 00 00 00 	nop 
    2d40:	01 00 00 00 	nop 
    2d44:	01 00 00 00 	nop 
    2d48:	01 00 00 00 	nop 
    2d4c:	01 00 00 00 	nop 
    2d50:	01 00 00 00 	nop 
    2d54:	01 00 00 00 	nop 
    2d58:	01 00 00 00 	nop 
    2d5c:	01 00 00 00 	nop 
    2d60:	01 00 00 00 	nop 
    2d64:	01 00 00 00 	nop 
    2d68:	01 00 00 00 	nop 
    2d6c:	01 00 00 00 	nop 
    2d70:	01 00 00 00 	nop 
    2d74:	01 00 00 00 	nop 
    2d78:	01 00 00 00 	nop 
    2d7c:	01 00 00 00 	nop 
    2d80:	01 00 00 00 	nop 
    2d84:	01 00 00 00 	nop 
    2d88:	01 00 00 00 	nop 
    2d8c:	01 00 00 00 	nop 
    2d90:	01 00 00 00 	nop 
    2d94:	01 00 00 00 	nop 
    2d98:	01 00 00 00 	nop 
    2d9c:	01 00 00 00 	nop 
    2da0:	01 00 00 00 	nop 
    2da4:	01 00 00 00 	nop 
    2da8:	01 00 00 00 	nop 
    2dac:	01 00 00 00 	nop 
    2db0:	01 00 00 00 	nop 
    2db4:	01 00 00 00 	nop 
    2db8:	01 00 00 00 	nop 
    2dbc:	01 00 00 00 	nop 
    2dc0:	01 00 00 00 	nop 
    2dc4:	01 00 00 00 	nop 
    2dc8:	01 00 00 00 	nop 
    2dcc:	01 00 00 00 	nop 
    2dd0:	01 00 00 00 	nop 
    2dd4:	01 00 00 00 	nop 
    2dd8:	01 00 00 00 	nop 
    2ddc:	01 00 00 00 	nop 
    2de0:	01 00 00 00 	nop 
    2de4:	01 00 00 00 	nop 
    2de8:	01 00 00 00 	nop 
    2dec:	01 00 00 00 	nop 
    2df0:	01 00 00 00 	nop 
    2df4:	01 00 00 00 	nop 
    2df8:	01 00 00 00 	nop 
    2dfc:	01 00 00 00 	nop 
    2e00:	01 00 00 00 	nop 
    2e04:	01 00 00 00 	nop 
    2e08:	01 00 00 00 	nop 
    2e0c:	01 00 00 00 	nop 
    2e10:	01 00 00 00 	nop 
    2e14:	01 00 00 00 	nop 
    2e18:	01 00 00 00 	nop 
    2e1c:	01 00 00 00 	nop 
    2e20:	01 00 00 00 	nop 
    2e24:	01 00 00 00 	nop 
    2e28:	01 00 00 00 	nop 
    2e2c:	01 00 00 00 	nop 
    2e30:	01 00 00 00 	nop 
    2e34:	01 00 00 00 	nop 
    2e38:	01 00 00 00 	nop 
    2e3c:	01 00 00 00 	nop 
    2e40:	01 00 00 00 	nop 
    2e44:	01 00 00 00 	nop 
    2e48:	01 00 00 00 	nop 
    2e4c:	01 00 00 00 	nop 
    2e50:	01 00 00 00 	nop 
    2e54:	01 00 00 00 	nop 
    2e58:	01 00 00 00 	nop 
    2e5c:	01 00 00 00 	nop 
    2e60:	01 00 00 00 	nop 
    2e64:	01 00 00 00 	nop 
    2e68:	01 00 00 00 	nop 
    2e6c:	01 00 00 00 	nop 
    2e70:	01 00 00 00 	nop 
    2e74:	01 00 00 00 	nop 
    2e78:	01 00 00 00 	nop 
    2e7c:	01 00 00 00 	nop 
    2e80:	01 00 00 00 	nop 
    2e84:	01 00 00 00 	nop 
    2e88:	01 00 00 00 	nop 
    2e8c:	01 00 00 00 	nop 
    2e90:	01 00 00 00 	nop 
    2e94:	01 00 00 00 	nop 
    2e98:	01 00 00 00 	nop 
    2e9c:	01 00 00 00 	nop 
    2ea0:	01 00 00 00 	nop 
    2ea4:	01 00 00 00 	nop 
    2ea8:	01 00 00 00 	nop 
    2eac:	01 00 00 00 	nop 
    2eb0:	01 00 00 00 	nop 
    2eb4:	01 00 00 00 	nop 
    2eb8:	01 00 00 00 	nop 
    2ebc:	01 00 00 00 	nop 
    2ec0:	01 00 00 00 	nop 
    2ec4:	01 00 00 00 	nop 
    2ec8:	01 00 00 00 	nop 
    2ecc:	01 00 00 00 	nop 
    2ed0:	01 00 00 00 	nop 
    2ed4:	01 00 00 00 	nop 
    2ed8:	01 00 00 00 	nop 
    2edc:	01 00 00 00 	nop 
    2ee0:	01 00 00 00 	nop 
    2ee4:	01 00 00 00 	nop 
    2ee8:	01 00 00 00 	nop 
    2eec:	01 00 00 00 	nop 
    2ef0:	01 00 00 00 	nop 
    2ef4:	01 00 00 00 	nop 
    2ef8:	01 00 00 00 	nop 
    2efc:	01 00 00 00 	nop 
    2f00:	01 00 00 00 	nop 
    2f04:	01 00 00 00 	nop 
    2f08:	01 00 00 00 	nop 
    2f0c:	01 00 00 00 	nop 
    2f10:	01 00 00 00 	nop 
    2f14:	01 00 00 00 	nop 
    2f18:	01 00 00 00 	nop 
    2f1c:	01 00 00 00 	nop 
    2f20:	01 00 00 00 	nop 
    2f24:	01 00 00 00 	nop 
    2f28:	01 00 00 00 	nop 
    2f2c:	01 00 00 00 	nop 
    2f30:	01 00 00 00 	nop 
    2f34:	01 00 00 00 	nop 
    2f38:	01 00 00 00 	nop 
    2f3c:	01 00 00 00 	nop 
    2f40:	01 00 00 00 	nop 
    2f44:	01 00 00 00 	nop 
    2f48:	01 00 00 00 	nop 
    2f4c:	01 00 00 00 	nop 
    2f50:	01 00 00 00 	nop 
    2f54:	01 00 00 00 	nop 
    2f58:	01 00 00 00 	nop 
    2f5c:	01 00 00 00 	nop 
    2f60:	01 00 00 00 	nop 
    2f64:	01 00 00 00 	nop 
    2f68:	01 00 00 00 	nop 
    2f6c:	01 00 00 00 	nop 
    2f70:	01 00 00 00 	nop 
    2f74:	01 00 00 00 	nop 
    2f78:	01 00 00 00 	nop 
    2f7c:	01 00 00 00 	nop 
    2f80:	01 00 00 00 	nop 
    2f84:	01 00 00 00 	nop 
    2f88:	01 00 00 00 	nop 
    2f8c:	01 00 00 00 	nop 
    2f90:	01 00 00 00 	nop 
    2f94:	01 00 00 00 	nop 
    2f98:	01 00 00 00 	nop 
    2f9c:	01 00 00 00 	nop 
    2fa0:	01 00 00 00 	nop 
    2fa4:	01 00 00 00 	nop 
    2fa8:	01 00 00 00 	nop 
    2fac:	01 00 00 00 	nop 
    2fb0:	01 00 00 00 	nop 
    2fb4:	01 00 00 00 	nop 
    2fb8:	01 00 00 00 	nop 
    2fbc:	01 00 00 00 	nop 
    2fc0:	01 00 00 00 	nop 
    2fc4:	01 00 00 00 	nop 
    2fc8:	01 00 00 00 	nop 
    2fcc:	01 00 00 00 	nop 
    2fd0:	01 00 00 00 	nop 
    2fd4:	01 00 00 00 	nop 
    2fd8:	01 00 00 00 	nop 
    2fdc:	01 00 00 00 	nop 
    2fe0:	01 00 00 00 	nop 
    2fe4:	01 00 00 00 	nop 
    2fe8:	01 00 00 00 	nop 
    2fec:	01 00 00 00 	nop 
    2ff0:	01 00 00 00 	nop 
    2ff4:	01 00 00 00 	nop 
    2ff8:	01 00 00 00 	nop 
    2ffc:	01 00 00 00 	nop 

00003000 <trap_table_base>:
    3000:	91 d0 20 00 	ta  0
    3004:	01 00 00 00 	nop 
    3008:	01 00 00 00 	nop 
    300c:	01 00 00 00 	nop 

00003010 <HW_trap_0x01>:
    3010:	91 d0 20 00 	ta  0
    3014:	01 00 00 00 	nop 
    3018:	01 00 00 00 	nop 
    301c:	01 00 00 00 	nop 

00003020 <HW_trap_0x02>:
    3020:	91 d0 20 00 	ta  0
    3024:	01 00 00 00 	nop 
    3028:	01 00 00 00 	nop 
    302c:	01 00 00 00 	nop 

00003030 <HW_trap_0x03>:
    3030:	91 d0 20 00 	ta  0
    3034:	01 00 00 00 	nop 
    3038:	01 00 00 00 	nop 
    303c:	01 00 00 00 	nop 

00003040 <HW_trap_0x04>:
    3040:	91 d0 20 00 	ta  0
    3044:	01 00 00 00 	nop 
    3048:	01 00 00 00 	nop 
    304c:	01 00 00 00 	nop 

00003050 <HW_trap_0x05>:
    3050:	10 bf fb ec 	b  2000 <window_overflow_trap_handler>
    3054:	01 00 00 00 	nop 
    3058:	01 00 00 00 	nop 
    305c:	01 00 00 00 	nop 

00003060 <HW_trap_0x06>:
    3060:	10 bf fc 01 	b  2064 <window_underflow_trap_handler>
    3064:	01 00 00 00 	nop 
    3068:	01 00 00 00 	nop 
    306c:	01 00 00 00 	nop 

00003070 <HW_trap_0x07>:
    3070:	91 d0 20 00 	ta  0
    3074:	01 00 00 00 	nop 
    3078:	01 00 00 00 	nop 
    307c:	01 00 00 00 	nop 

00003080 <HW_trap_0x08>:
    3080:	91 d0 20 00 	ta  0
    3084:	01 00 00 00 	nop 
    3088:	01 00 00 00 	nop 
    308c:	01 00 00 00 	nop 

00003090 <HW_trap_0x09>:
    3090:	91 d0 20 00 	ta  0
    3094:	01 00 00 00 	nop 
    3098:	01 00 00 00 	nop 
    309c:	01 00 00 00 	nop 

000030a0 <HW_trap_0x0a>:
    30a0:	91 d0 20 00 	ta  0
    30a4:	01 00 00 00 	nop 
    30a8:	01 00 00 00 	nop 
    30ac:	01 00 00 00 	nop 

000030b0 <HW_trap_0x0b>:
    30b0:	91 d0 20 00 	ta  0
    30b4:	01 00 00 00 	nop 
    30b8:	01 00 00 00 	nop 
    30bc:	01 00 00 00 	nop 

000030c0 <HW_trap_0x0c>:
    30c0:	91 d0 20 00 	ta  0
    30c4:	01 00 00 00 	nop 
    30c8:	01 00 00 00 	nop 
    30cc:	01 00 00 00 	nop 

000030d0 <HW_trap_0x0d>:
    30d0:	91 d0 20 00 	ta  0
    30d4:	01 00 00 00 	nop 
    30d8:	01 00 00 00 	nop 
    30dc:	01 00 00 00 	nop 

000030e0 <HW_trap_0x0e>:
    30e0:	91 d0 20 00 	ta  0
    30e4:	01 00 00 00 	nop 
    30e8:	01 00 00 00 	nop 
    30ec:	01 00 00 00 	nop 

000030f0 <HW_trap_0x0f>:
    30f0:	91 d0 20 00 	ta  0
    30f4:	01 00 00 00 	nop 
    30f8:	01 00 00 00 	nop 
    30fc:	01 00 00 00 	nop 

00003100 <HW_trap_0x10>:
    3100:	91 d0 20 00 	ta  0
    3104:	01 00 00 00 	nop 
    3108:	01 00 00 00 	nop 
    310c:	01 00 00 00 	nop 

00003110 <HW_trap_0x11>:
    3110:	91 d0 20 00 	ta  0
    3114:	01 00 00 00 	nop 
    3118:	01 00 00 00 	nop 
    311c:	01 00 00 00 	nop 

00003120 <HW_trap_0x12>:
    3120:	91 d0 20 00 	ta  0
    3124:	01 00 00 00 	nop 
    3128:	01 00 00 00 	nop 
    312c:	01 00 00 00 	nop 

00003130 <HW_trap_0x13>:
    3130:	91 d0 20 00 	ta  0
    3134:	01 00 00 00 	nop 
    3138:	01 00 00 00 	nop 
    313c:	01 00 00 00 	nop 

00003140 <HW_trap_0x14>:
    3140:	91 d0 20 00 	ta  0
    3144:	01 00 00 00 	nop 
    3148:	01 00 00 00 	nop 
    314c:	01 00 00 00 	nop 

00003150 <HW_trap_0x15>:
    3150:	91 d0 20 00 	ta  0
    3154:	01 00 00 00 	nop 
    3158:	01 00 00 00 	nop 
    315c:	01 00 00 00 	nop 

00003160 <HW_trap_0x16>:
    3160:	91 d0 20 00 	ta  0
    3164:	01 00 00 00 	nop 
    3168:	01 00 00 00 	nop 
    316c:	01 00 00 00 	nop 

00003170 <HW_trap_0x17>:
    3170:	91 d0 20 00 	ta  0
    3174:	01 00 00 00 	nop 
    3178:	01 00 00 00 	nop 
    317c:	01 00 00 00 	nop 

00003180 <HW_trap_0x18>:
    3180:	91 d0 20 00 	ta  0
    3184:	01 00 00 00 	nop 
    3188:	01 00 00 00 	nop 
    318c:	01 00 00 00 	nop 

00003190 <HW_trap_0x19>:
    3190:	91 d0 20 00 	ta  0
    3194:	01 00 00 00 	nop 
    3198:	01 00 00 00 	nop 
    319c:	01 00 00 00 	nop 

000031a0 <HW_trap_0x1a>:
    31a0:	91 d0 20 00 	ta  0
    31a4:	01 00 00 00 	nop 
    31a8:	01 00 00 00 	nop 
    31ac:	01 00 00 00 	nop 

000031b0 <HW_trap_0x1b>:
    31b0:	91 d0 20 00 	ta  0
    31b4:	01 00 00 00 	nop 
    31b8:	01 00 00 00 	nop 
    31bc:	01 00 00 00 	nop 

000031c0 <HW_trap_0x1c>:
    31c0:	91 d0 20 00 	ta  0
    31c4:	01 00 00 00 	nop 
    31c8:	01 00 00 00 	nop 
    31cc:	01 00 00 00 	nop 

000031d0 <HW_trap_0x1d>:
    31d0:	91 d0 20 00 	ta  0
    31d4:	01 00 00 00 	nop 
    31d8:	01 00 00 00 	nop 
    31dc:	01 00 00 00 	nop 

000031e0 <HW_trap_0x1e>:
    31e0:	91 d0 20 00 	ta  0
    31e4:	01 00 00 00 	nop 
    31e8:	01 00 00 00 	nop 
    31ec:	01 00 00 00 	nop 

000031f0 <HW_trap_0x1f>:
    31f0:	91 d0 20 00 	ta  0
    31f4:	01 00 00 00 	nop 
    31f8:	01 00 00 00 	nop 
    31fc:	01 00 00 00 	nop 

00003200 <HW_trap_0x20>:
    3200:	91 d0 20 00 	ta  0
    3204:	01 00 00 00 	nop 
    3208:	01 00 00 00 	nop 
    320c:	01 00 00 00 	nop 

00003210 <HW_trap_0x21>:
    3210:	91 d0 20 00 	ta  0
    3214:	01 00 00 00 	nop 
    3218:	01 00 00 00 	nop 
    321c:	01 00 00 00 	nop 

00003220 <HW_trap_0x22>:
    3220:	91 d0 20 00 	ta  0
    3224:	01 00 00 00 	nop 
    3228:	01 00 00 00 	nop 
    322c:	01 00 00 00 	nop 

00003230 <HW_trap_0x23>:
    3230:	91 d0 20 00 	ta  0
    3234:	01 00 00 00 	nop 
    3238:	01 00 00 00 	nop 
    323c:	01 00 00 00 	nop 

00003240 <HW_trap_0x24>:
    3240:	91 d0 20 00 	ta  0
    3244:	01 00 00 00 	nop 
    3248:	01 00 00 00 	nop 
    324c:	01 00 00 00 	nop 

00003250 <HW_trap_0x25>:
    3250:	91 d0 20 00 	ta  0
    3254:	01 00 00 00 	nop 
    3258:	01 00 00 00 	nop 
    325c:	01 00 00 00 	nop 

00003260 <HW_trap_0x26>:
    3260:	91 d0 20 00 	ta  0
    3264:	01 00 00 00 	nop 
    3268:	01 00 00 00 	nop 
    326c:	01 00 00 00 	nop 

00003270 <HW_trap_0x27>:
    3270:	91 d0 20 00 	ta  0
    3274:	01 00 00 00 	nop 
    3278:	01 00 00 00 	nop 
    327c:	01 00 00 00 	nop 

00003280 <HW_trap_0x28>:
    3280:	91 d0 20 00 	ta  0
    3284:	01 00 00 00 	nop 
    3288:	01 00 00 00 	nop 
    328c:	01 00 00 00 	nop 

00003290 <HW_trap_0x29>:
    3290:	91 d0 20 00 	ta  0
    3294:	01 00 00 00 	nop 
    3298:	01 00 00 00 	nop 
    329c:	01 00 00 00 	nop 

000032a0 <HW_trap_0x2a>:
    32a0:	91 d0 20 00 	ta  0
    32a4:	01 00 00 00 	nop 
    32a8:	01 00 00 00 	nop 
    32ac:	01 00 00 00 	nop 

000032b0 <HW_trap_0x2b>:
    32b0:	91 d0 20 00 	ta  0
    32b4:	01 00 00 00 	nop 
    32b8:	01 00 00 00 	nop 
    32bc:	01 00 00 00 	nop 

000032c0 <HW_trap_0x2c>:
    32c0:	91 d0 20 00 	ta  0
    32c4:	01 00 00 00 	nop 
    32c8:	01 00 00 00 	nop 
    32cc:	01 00 00 00 	nop 

000032d0 <HW_trap_0x2d>:
    32d0:	91 d0 20 00 	ta  0
    32d4:	01 00 00 00 	nop 
    32d8:	01 00 00 00 	nop 
    32dc:	01 00 00 00 	nop 

000032e0 <HW_trap_0x2e>:
    32e0:	91 d0 20 00 	ta  0
    32e4:	01 00 00 00 	nop 
    32e8:	01 00 00 00 	nop 
    32ec:	01 00 00 00 	nop 

000032f0 <HW_trap_0x2f>:
    32f0:	91 d0 20 00 	ta  0
    32f4:	01 00 00 00 	nop 
    32f8:	01 00 00 00 	nop 
    32fc:	01 00 00 00 	nop 

00003300 <HW_trap_0x30>:
    3300:	91 d0 20 00 	ta  0
    3304:	01 00 00 00 	nop 
    3308:	01 00 00 00 	nop 
    330c:	01 00 00 00 	nop 

00003310 <HW_trap_0x31>:
    3310:	91 d0 20 00 	ta  0
    3314:	01 00 00 00 	nop 
    3318:	01 00 00 00 	nop 
    331c:	01 00 00 00 	nop 

00003320 <HW_trap_0x32>:
    3320:	91 d0 20 00 	ta  0
    3324:	01 00 00 00 	nop 
    3328:	01 00 00 00 	nop 
    332c:	01 00 00 00 	nop 

00003330 <HW_trap_0x33>:
    3330:	91 d0 20 00 	ta  0
    3334:	01 00 00 00 	nop 
    3338:	01 00 00 00 	nop 
    333c:	01 00 00 00 	nop 

00003340 <HW_trap_0x34>:
    3340:	91 d0 20 00 	ta  0
    3344:	01 00 00 00 	nop 
    3348:	01 00 00 00 	nop 
    334c:	01 00 00 00 	nop 

00003350 <HW_trap_0x35>:
    3350:	91 d0 20 00 	ta  0
    3354:	01 00 00 00 	nop 
    3358:	01 00 00 00 	nop 
    335c:	01 00 00 00 	nop 

00003360 <HW_trap_0x36>:
    3360:	91 d0 20 00 	ta  0
    3364:	01 00 00 00 	nop 
    3368:	01 00 00 00 	nop 
    336c:	01 00 00 00 	nop 

00003370 <HW_trap_0x37>:
    3370:	91 d0 20 00 	ta  0
    3374:	01 00 00 00 	nop 
    3378:	01 00 00 00 	nop 
    337c:	01 00 00 00 	nop 

00003380 <HW_trap_0x38>:
    3380:	91 d0 20 00 	ta  0
    3384:	01 00 00 00 	nop 
    3388:	01 00 00 00 	nop 
    338c:	01 00 00 00 	nop 

00003390 <HW_trap_0x39>:
    3390:	91 d0 20 00 	ta  0
    3394:	01 00 00 00 	nop 
    3398:	01 00 00 00 	nop 
    339c:	01 00 00 00 	nop 

000033a0 <HW_trap_0x3a>:
    33a0:	91 d0 20 00 	ta  0
    33a4:	01 00 00 00 	nop 
    33a8:	01 00 00 00 	nop 
    33ac:	01 00 00 00 	nop 

000033b0 <HW_trap_0x3b>:
    33b0:	91 d0 20 00 	ta  0
    33b4:	01 00 00 00 	nop 
    33b8:	01 00 00 00 	nop 
    33bc:	01 00 00 00 	nop 

000033c0 <HW_trap_0x3c>:
    33c0:	91 d0 20 00 	ta  0
    33c4:	01 00 00 00 	nop 
    33c8:	01 00 00 00 	nop 
    33cc:	01 00 00 00 	nop 

000033d0 <HW_trap_0x3d>:
    33d0:	91 d0 20 00 	ta  0
    33d4:	01 00 00 00 	nop 
    33d8:	01 00 00 00 	nop 
    33dc:	01 00 00 00 	nop 

000033e0 <HW_trap_0x3e>:
    33e0:	91 d0 20 00 	ta  0
    33e4:	01 00 00 00 	nop 
    33e8:	01 00 00 00 	nop 
    33ec:	01 00 00 00 	nop 

000033f0 <HW_trap_0x3f>:
    33f0:	91 d0 20 00 	ta  0
    33f4:	01 00 00 00 	nop 
    33f8:	01 00 00 00 	nop 
    33fc:	01 00 00 00 	nop 

00003400 <HW_trap_0x40>:
    3400:	91 d0 20 00 	ta  0
    3404:	01 00 00 00 	nop 
    3408:	01 00 00 00 	nop 
    340c:	01 00 00 00 	nop 

00003410 <HW_trap_0x41>:
    3410:	91 d0 20 00 	ta  0
    3414:	01 00 00 00 	nop 
    3418:	01 00 00 00 	nop 
    341c:	01 00 00 00 	nop 

00003420 <HW_trap_0x42>:
    3420:	91 d0 20 00 	ta  0
    3424:	01 00 00 00 	nop 
    3428:	01 00 00 00 	nop 
    342c:	01 00 00 00 	nop 

00003430 <HW_trap_0x43>:
    3430:	91 d0 20 00 	ta  0
    3434:	01 00 00 00 	nop 
    3438:	01 00 00 00 	nop 
    343c:	01 00 00 00 	nop 

00003440 <HW_trap_0x44>:
    3440:	91 d0 20 00 	ta  0
    3444:	01 00 00 00 	nop 
    3448:	01 00 00 00 	nop 
    344c:	01 00 00 00 	nop 

00003450 <HW_trap_0x45>:
    3450:	91 d0 20 00 	ta  0
    3454:	01 00 00 00 	nop 
    3458:	01 00 00 00 	nop 
    345c:	01 00 00 00 	nop 

00003460 <HW_trap_0x46>:
    3460:	91 d0 20 00 	ta  0
    3464:	01 00 00 00 	nop 
    3468:	01 00 00 00 	nop 
    346c:	01 00 00 00 	nop 

00003470 <HW_trap_0x47>:
    3470:	91 d0 20 00 	ta  0
    3474:	01 00 00 00 	nop 
    3478:	01 00 00 00 	nop 
    347c:	01 00 00 00 	nop 

00003480 <HW_trap_0x48>:
    3480:	91 d0 20 00 	ta  0
    3484:	01 00 00 00 	nop 
    3488:	01 00 00 00 	nop 
    348c:	01 00 00 00 	nop 

00003490 <HW_trap_0x49>:
    3490:	91 d0 20 00 	ta  0
    3494:	01 00 00 00 	nop 
    3498:	01 00 00 00 	nop 
    349c:	01 00 00 00 	nop 

000034a0 <HW_trap_0x4a>:
    34a0:	91 d0 20 00 	ta  0
    34a4:	01 00 00 00 	nop 
    34a8:	01 00 00 00 	nop 
    34ac:	01 00 00 00 	nop 

000034b0 <HW_trap_0x4b>:
    34b0:	91 d0 20 00 	ta  0
    34b4:	01 00 00 00 	nop 
    34b8:	01 00 00 00 	nop 
    34bc:	01 00 00 00 	nop 

000034c0 <HW_trap_0x4c>:
    34c0:	91 d0 20 00 	ta  0
    34c4:	01 00 00 00 	nop 
    34c8:	01 00 00 00 	nop 
    34cc:	01 00 00 00 	nop 

000034d0 <HW_trap_0x4d>:
    34d0:	91 d0 20 00 	ta  0
    34d4:	01 00 00 00 	nop 
    34d8:	01 00 00 00 	nop 
    34dc:	01 00 00 00 	nop 

000034e0 <HW_trap_0x4e>:
    34e0:	91 d0 20 00 	ta  0
    34e4:	01 00 00 00 	nop 
    34e8:	01 00 00 00 	nop 
    34ec:	01 00 00 00 	nop 

000034f0 <HW_trap_0x4f>:
    34f0:	91 d0 20 00 	ta  0
    34f4:	01 00 00 00 	nop 
    34f8:	01 00 00 00 	nop 
    34fc:	01 00 00 00 	nop 

00003500 <HW_trap_0x50>:
    3500:	91 d0 20 00 	ta  0
    3504:	01 00 00 00 	nop 
    3508:	01 00 00 00 	nop 
    350c:	01 00 00 00 	nop 

00003510 <HW_trap_0x51>:
    3510:	91 d0 20 00 	ta  0
    3514:	01 00 00 00 	nop 
    3518:	01 00 00 00 	nop 
    351c:	01 00 00 00 	nop 

00003520 <HW_trap_0x52>:
    3520:	91 d0 20 00 	ta  0
    3524:	01 00 00 00 	nop 
    3528:	01 00 00 00 	nop 
    352c:	01 00 00 00 	nop 

00003530 <HW_trap_0x53>:
    3530:	91 d0 20 00 	ta  0
    3534:	01 00 00 00 	nop 
    3538:	01 00 00 00 	nop 
    353c:	01 00 00 00 	nop 

00003540 <HW_trap_0x54>:
    3540:	91 d0 20 00 	ta  0
    3544:	01 00 00 00 	nop 
    3548:	01 00 00 00 	nop 
    354c:	01 00 00 00 	nop 

00003550 <HW_trap_0x55>:
    3550:	91 d0 20 00 	ta  0
    3554:	01 00 00 00 	nop 
    3558:	01 00 00 00 	nop 
    355c:	01 00 00 00 	nop 

00003560 <HW_trap_0x56>:
    3560:	91 d0 20 00 	ta  0
    3564:	01 00 00 00 	nop 
    3568:	01 00 00 00 	nop 
    356c:	01 00 00 00 	nop 

00003570 <HW_trap_0x57>:
    3570:	91 d0 20 00 	ta  0
    3574:	01 00 00 00 	nop 
    3578:	01 00 00 00 	nop 
    357c:	01 00 00 00 	nop 

00003580 <HW_trap_0x58>:
    3580:	91 d0 20 00 	ta  0
    3584:	01 00 00 00 	nop 
    3588:	01 00 00 00 	nop 
    358c:	01 00 00 00 	nop 

00003590 <HW_trap_0x59>:
    3590:	91 d0 20 00 	ta  0
    3594:	01 00 00 00 	nop 
    3598:	01 00 00 00 	nop 
    359c:	01 00 00 00 	nop 

000035a0 <HW_trap_0x5a>:
    35a0:	91 d0 20 00 	ta  0
    35a4:	01 00 00 00 	nop 
    35a8:	01 00 00 00 	nop 
    35ac:	01 00 00 00 	nop 

000035b0 <HW_trap_0x5b>:
    35b0:	91 d0 20 00 	ta  0
    35b4:	01 00 00 00 	nop 
    35b8:	01 00 00 00 	nop 
    35bc:	01 00 00 00 	nop 

000035c0 <HW_trap_0x5c>:
    35c0:	91 d0 20 00 	ta  0
    35c4:	01 00 00 00 	nop 
    35c8:	01 00 00 00 	nop 
    35cc:	01 00 00 00 	nop 

000035d0 <HW_trap_0x5d>:
    35d0:	91 d0 20 00 	ta  0
    35d4:	01 00 00 00 	nop 
    35d8:	01 00 00 00 	nop 
    35dc:	01 00 00 00 	nop 

000035e0 <HW_trap_0x5e>:
    35e0:	91 d0 20 00 	ta  0
    35e4:	01 00 00 00 	nop 
    35e8:	01 00 00 00 	nop 
    35ec:	01 00 00 00 	nop 

000035f0 <HW_trap_0x5f>:
    35f0:	91 d0 20 00 	ta  0
    35f4:	01 00 00 00 	nop 
    35f8:	01 00 00 00 	nop 
    35fc:	01 00 00 00 	nop 

00003600 <HW_trap_0x60>:
    3600:	91 d0 20 00 	ta  0
    3604:	01 00 00 00 	nop 
    3608:	01 00 00 00 	nop 
    360c:	01 00 00 00 	nop 

00003610 <HW_trap_0x61>:
    3610:	91 d0 20 00 	ta  0
    3614:	01 00 00 00 	nop 
    3618:	01 00 00 00 	nop 
    361c:	01 00 00 00 	nop 

00003620 <HW_trap_0x62>:
    3620:	91 d0 20 00 	ta  0
    3624:	01 00 00 00 	nop 
    3628:	01 00 00 00 	nop 
    362c:	01 00 00 00 	nop 

00003630 <HW_trap_0x63>:
    3630:	91 d0 20 00 	ta  0
    3634:	01 00 00 00 	nop 
    3638:	01 00 00 00 	nop 
    363c:	01 00 00 00 	nop 

00003640 <HW_trap_0x64>:
    3640:	91 d0 20 00 	ta  0
    3644:	01 00 00 00 	nop 
    3648:	01 00 00 00 	nop 
    364c:	01 00 00 00 	nop 

00003650 <HW_trap_0x65>:
    3650:	91 d0 20 00 	ta  0
    3654:	01 00 00 00 	nop 
    3658:	01 00 00 00 	nop 
    365c:	01 00 00 00 	nop 

00003660 <HW_trap_0x66>:
    3660:	91 d0 20 00 	ta  0
    3664:	01 00 00 00 	nop 
    3668:	01 00 00 00 	nop 
    366c:	01 00 00 00 	nop 

00003670 <HW_trap_0x67>:
    3670:	91 d0 20 00 	ta  0
    3674:	01 00 00 00 	nop 
    3678:	01 00 00 00 	nop 
    367c:	01 00 00 00 	nop 

00003680 <HW_trap_0x68>:
    3680:	91 d0 20 00 	ta  0
    3684:	01 00 00 00 	nop 
    3688:	01 00 00 00 	nop 
    368c:	01 00 00 00 	nop 

00003690 <HW_trap_0x69>:
    3690:	91 d0 20 00 	ta  0
    3694:	01 00 00 00 	nop 
    3698:	01 00 00 00 	nop 
    369c:	01 00 00 00 	nop 

000036a0 <HW_trap_0x6a>:
    36a0:	91 d0 20 00 	ta  0
    36a4:	01 00 00 00 	nop 
    36a8:	01 00 00 00 	nop 
    36ac:	01 00 00 00 	nop 

000036b0 <HW_trap_0x6b>:
    36b0:	91 d0 20 00 	ta  0
    36b4:	01 00 00 00 	nop 
    36b8:	01 00 00 00 	nop 
    36bc:	01 00 00 00 	nop 

000036c0 <HW_trap_0x6c>:
    36c0:	91 d0 20 00 	ta  0
    36c4:	01 00 00 00 	nop 
    36c8:	01 00 00 00 	nop 
    36cc:	01 00 00 00 	nop 

000036d0 <HW_trap_0x6d>:
    36d0:	91 d0 20 00 	ta  0
    36d4:	01 00 00 00 	nop 
    36d8:	01 00 00 00 	nop 
    36dc:	01 00 00 00 	nop 

000036e0 <HW_trap_0x6e>:
    36e0:	91 d0 20 00 	ta  0
    36e4:	01 00 00 00 	nop 
    36e8:	01 00 00 00 	nop 
    36ec:	01 00 00 00 	nop 

000036f0 <HW_trap_0x6f>:
    36f0:	91 d0 20 00 	ta  0
    36f4:	01 00 00 00 	nop 
    36f8:	01 00 00 00 	nop 
    36fc:	01 00 00 00 	nop 

00003700 <HW_trap_0x70>:
    3700:	91 d0 20 00 	ta  0
    3704:	01 00 00 00 	nop 
    3708:	01 00 00 00 	nop 
    370c:	01 00 00 00 	nop 

00003710 <HW_trap_0x71>:
    3710:	91 d0 20 00 	ta  0
    3714:	01 00 00 00 	nop 
    3718:	01 00 00 00 	nop 
    371c:	01 00 00 00 	nop 

00003720 <HW_trap_0x72>:
    3720:	91 d0 20 00 	ta  0
    3724:	01 00 00 00 	nop 
    3728:	01 00 00 00 	nop 
    372c:	01 00 00 00 	nop 

00003730 <HW_trap_0x73>:
    3730:	91 d0 20 00 	ta  0
    3734:	01 00 00 00 	nop 
    3738:	01 00 00 00 	nop 
    373c:	01 00 00 00 	nop 

00003740 <HW_trap_0x74>:
    3740:	91 d0 20 00 	ta  0
    3744:	01 00 00 00 	nop 
    3748:	01 00 00 00 	nop 
    374c:	01 00 00 00 	nop 

00003750 <HW_trap_0x75>:
    3750:	91 d0 20 00 	ta  0
    3754:	01 00 00 00 	nop 
    3758:	01 00 00 00 	nop 
    375c:	01 00 00 00 	nop 

00003760 <HW_trap_0x76>:
    3760:	91 d0 20 00 	ta  0
    3764:	01 00 00 00 	nop 
    3768:	01 00 00 00 	nop 
    376c:	01 00 00 00 	nop 

00003770 <HW_trap_0x77>:
    3770:	91 d0 20 00 	ta  0
    3774:	01 00 00 00 	nop 
    3778:	01 00 00 00 	nop 
    377c:	01 00 00 00 	nop 

00003780 <HW_trap_0x78>:
    3780:	91 d0 20 00 	ta  0
    3784:	01 00 00 00 	nop 
    3788:	01 00 00 00 	nop 
    378c:	01 00 00 00 	nop 

00003790 <HW_trap_0x79>:
    3790:	91 d0 20 00 	ta  0
    3794:	01 00 00 00 	nop 
    3798:	01 00 00 00 	nop 
    379c:	01 00 00 00 	nop 

000037a0 <HW_trap_0x7a>:
    37a0:	91 d0 20 00 	ta  0
    37a4:	01 00 00 00 	nop 
    37a8:	01 00 00 00 	nop 
    37ac:	01 00 00 00 	nop 

000037b0 <HW_trap_0x7b>:
    37b0:	91 d0 20 00 	ta  0
    37b4:	01 00 00 00 	nop 
    37b8:	01 00 00 00 	nop 
    37bc:	01 00 00 00 	nop 

000037c0 <HW_trap_0x7c>:
    37c0:	91 d0 20 00 	ta  0
    37c4:	01 00 00 00 	nop 
    37c8:	01 00 00 00 	nop 
    37cc:	01 00 00 00 	nop 

000037d0 <HW_trap_0x7d>:
    37d0:	91 d0 20 00 	ta  0
    37d4:	01 00 00 00 	nop 
    37d8:	01 00 00 00 	nop 
    37dc:	01 00 00 00 	nop 

000037e0 <HW_trap_0x7e>:
    37e0:	91 d0 20 00 	ta  0
    37e4:	01 00 00 00 	nop 
    37e8:	01 00 00 00 	nop 
    37ec:	01 00 00 00 	nop 

000037f0 <HW_trap_0x7f>:
    37f0:	91 d0 20 00 	ta  0
    37f4:	01 00 00 00 	nop 
    37f8:	01 00 00 00 	nop 
    37fc:	01 00 00 00 	nop 

00003800 <SW_trap_0x80>:
    3800:	91 d0 20 00 	ta  0
    3804:	01 00 00 00 	nop 
    3808:	01 00 00 00 	nop 
    380c:	01 00 00 00 	nop 

00003810 <SW_trap_0x81>:
    3810:	91 d0 20 00 	ta  0
    3814:	01 00 00 00 	nop 
    3818:	01 00 00 00 	nop 
    381c:	01 00 00 00 	nop 

00003820 <SW_trap_0x82>:
    3820:	91 d0 20 00 	ta  0
    3824:	01 00 00 00 	nop 
    3828:	01 00 00 00 	nop 
    382c:	01 00 00 00 	nop 

00003830 <SW_trap_0x83>:
    3830:	91 d0 20 00 	ta  0
    3834:	01 00 00 00 	nop 
    3838:	01 00 00 00 	nop 
    383c:	01 00 00 00 	nop 

00003840 <SW_trap_0x84>:
    3840:	91 d0 20 00 	ta  0
    3844:	01 00 00 00 	nop 
    3848:	01 00 00 00 	nop 
    384c:	01 00 00 00 	nop 

00003850 <SW_trap_0x85>:
    3850:	91 d0 20 00 	ta  0
    3854:	01 00 00 00 	nop 
    3858:	01 00 00 00 	nop 
    385c:	01 00 00 00 	nop 

00003860 <SW_trap_0x86>:
    3860:	91 d0 20 00 	ta  0
    3864:	01 00 00 00 	nop 
    3868:	01 00 00 00 	nop 
    386c:	01 00 00 00 	nop 

00003870 <SW_trap_0x87>:
    3870:	91 d0 20 00 	ta  0
    3874:	01 00 00 00 	nop 
    3878:	01 00 00 00 	nop 
    387c:	01 00 00 00 	nop 

00003880 <SW_trap_0x88>:
    3880:	91 d0 20 00 	ta  0
    3884:	01 00 00 00 	nop 
    3888:	01 00 00 00 	nop 
    388c:	01 00 00 00 	nop 

00003890 <SW_trap_0x89>:
    3890:	91 d0 20 00 	ta  0
    3894:	01 00 00 00 	nop 
    3898:	01 00 00 00 	nop 
    389c:	01 00 00 00 	nop 

000038a0 <SW_trap_0x8a>:
    38a0:	91 d0 20 00 	ta  0
    38a4:	01 00 00 00 	nop 
    38a8:	01 00 00 00 	nop 
    38ac:	01 00 00 00 	nop 

000038b0 <SW_trap_0x8b>:
    38b0:	91 d0 20 00 	ta  0
    38b4:	01 00 00 00 	nop 
    38b8:	01 00 00 00 	nop 
    38bc:	01 00 00 00 	nop 

000038c0 <SW_trap_0x8c>:
    38c0:	91 d0 20 00 	ta  0
    38c4:	01 00 00 00 	nop 
    38c8:	01 00 00 00 	nop 
    38cc:	01 00 00 00 	nop 

000038d0 <SW_trap_0x8d>:
    38d0:	91 d0 20 00 	ta  0
    38d4:	01 00 00 00 	nop 
    38d8:	01 00 00 00 	nop 
    38dc:	01 00 00 00 	nop 

000038e0 <SW_trap_0x8e>:
    38e0:	91 d0 20 00 	ta  0
    38e4:	01 00 00 00 	nop 
    38e8:	01 00 00 00 	nop 
    38ec:	01 00 00 00 	nop 

000038f0 <SW_trap_0x8f>:
    38f0:	91 d0 20 00 	ta  0
    38f4:	01 00 00 00 	nop 
    38f8:	01 00 00 00 	nop 
    38fc:	01 00 00 00 	nop 

00003900 <SW_trap_0x90>:
    3900:	91 d0 20 00 	ta  0
    3904:	01 00 00 00 	nop 
    3908:	01 00 00 00 	nop 
    390c:	01 00 00 00 	nop 

00003910 <SW_trap_0x91>:
    3910:	91 d0 20 00 	ta  0
    3914:	01 00 00 00 	nop 
    3918:	01 00 00 00 	nop 
    391c:	01 00 00 00 	nop 

00003920 <SW_trap_0x92>:
    3920:	91 d0 20 00 	ta  0
    3924:	01 00 00 00 	nop 
    3928:	01 00 00 00 	nop 
    392c:	01 00 00 00 	nop 

00003930 <SW_trap_0x93>:
    3930:	91 d0 20 00 	ta  0
    3934:	01 00 00 00 	nop 
    3938:	01 00 00 00 	nop 
    393c:	01 00 00 00 	nop 

00003940 <SW_trap_0x94>:
    3940:	91 d0 20 00 	ta  0
    3944:	01 00 00 00 	nop 
    3948:	01 00 00 00 	nop 
    394c:	01 00 00 00 	nop 

00003950 <SW_trap_0x95>:
    3950:	91 d0 20 00 	ta  0
    3954:	01 00 00 00 	nop 
    3958:	01 00 00 00 	nop 
    395c:	01 00 00 00 	nop 

00003960 <SW_trap_0x96>:
    3960:	91 d0 20 00 	ta  0
    3964:	01 00 00 00 	nop 
    3968:	01 00 00 00 	nop 
    396c:	01 00 00 00 	nop 

00003970 <SW_trap_0x97>:
    3970:	91 d0 20 00 	ta  0
    3974:	01 00 00 00 	nop 
    3978:	01 00 00 00 	nop 
    397c:	01 00 00 00 	nop 

00003980 <SW_trap_0x98>:
    3980:	91 d0 20 00 	ta  0
    3984:	01 00 00 00 	nop 
    3988:	01 00 00 00 	nop 
    398c:	01 00 00 00 	nop 

00003990 <SW_trap_0x99>:
    3990:	91 d0 20 00 	ta  0
    3994:	01 00 00 00 	nop 
    3998:	01 00 00 00 	nop 
    399c:	01 00 00 00 	nop 

000039a0 <SW_trap_0x9a>:
    39a0:	91 d0 20 00 	ta  0
    39a4:	01 00 00 00 	nop 
    39a8:	01 00 00 00 	nop 
    39ac:	01 00 00 00 	nop 

000039b0 <SW_trap_0x9b>:
    39b0:	91 d0 20 00 	ta  0
    39b4:	01 00 00 00 	nop 
    39b8:	01 00 00 00 	nop 
    39bc:	01 00 00 00 	nop 

000039c0 <SW_trap_0x9c>:
    39c0:	91 d0 20 00 	ta  0
    39c4:	01 00 00 00 	nop 
    39c8:	01 00 00 00 	nop 
    39cc:	01 00 00 00 	nop 

000039d0 <SW_trap_0x9d>:
    39d0:	91 d0 20 00 	ta  0
    39d4:	01 00 00 00 	nop 
    39d8:	01 00 00 00 	nop 
    39dc:	01 00 00 00 	nop 

000039e0 <SW_trap_0x9e>:
    39e0:	91 d0 20 00 	ta  0
    39e4:	01 00 00 00 	nop 
    39e8:	01 00 00 00 	nop 
    39ec:	01 00 00 00 	nop 

000039f0 <SW_trap_0x9f>:
    39f0:	91 d0 20 00 	ta  0
    39f4:	01 00 00 00 	nop 
    39f8:	01 00 00 00 	nop 
    39fc:	01 00 00 00 	nop 

00003a00 <SW_trap_0xa0>:
    3a00:	91 d0 20 00 	ta  0
    3a04:	01 00 00 00 	nop 
    3a08:	01 00 00 00 	nop 
    3a0c:	01 00 00 00 	nop 

00003a10 <SW_trap_0xa1>:
    3a10:	91 d0 20 00 	ta  0
    3a14:	01 00 00 00 	nop 
    3a18:	01 00 00 00 	nop 
    3a1c:	01 00 00 00 	nop 

00003a20 <SW_trap_0xa2>:
    3a20:	91 d0 20 00 	ta  0
    3a24:	01 00 00 00 	nop 
    3a28:	01 00 00 00 	nop 
    3a2c:	01 00 00 00 	nop 

00003a30 <SW_trap_0xa3>:
    3a30:	91 d0 20 00 	ta  0
    3a34:	01 00 00 00 	nop 
    3a38:	01 00 00 00 	nop 
    3a3c:	01 00 00 00 	nop 

00003a40 <SW_trap_0xa4>:
    3a40:	91 d0 20 00 	ta  0
    3a44:	01 00 00 00 	nop 
    3a48:	01 00 00 00 	nop 
    3a4c:	01 00 00 00 	nop 

00003a50 <SW_trap_0xa5>:
    3a50:	91 d0 20 00 	ta  0
    3a54:	01 00 00 00 	nop 
    3a58:	01 00 00 00 	nop 
    3a5c:	01 00 00 00 	nop 

00003a60 <SW_trap_0xa6>:
    3a60:	91 d0 20 00 	ta  0
    3a64:	01 00 00 00 	nop 
    3a68:	01 00 00 00 	nop 
    3a6c:	01 00 00 00 	nop 

00003a70 <SW_trap_0xa7>:
    3a70:	91 d0 20 00 	ta  0
    3a74:	01 00 00 00 	nop 
    3a78:	01 00 00 00 	nop 
    3a7c:	01 00 00 00 	nop 

00003a80 <SW_trap_0xa8>:
    3a80:	91 d0 20 00 	ta  0
    3a84:	01 00 00 00 	nop 
    3a88:	01 00 00 00 	nop 
    3a8c:	01 00 00 00 	nop 

00003a90 <SW_trap_0xa9>:
    3a90:	91 d0 20 00 	ta  0
    3a94:	01 00 00 00 	nop 
    3a98:	01 00 00 00 	nop 
    3a9c:	01 00 00 00 	nop 

00003aa0 <SW_trap_0xaa>:
    3aa0:	91 d0 20 00 	ta  0
    3aa4:	01 00 00 00 	nop 
    3aa8:	01 00 00 00 	nop 
    3aac:	01 00 00 00 	nop 

00003ab0 <SW_trap_0xab>:
    3ab0:	91 d0 20 00 	ta  0
    3ab4:	01 00 00 00 	nop 
    3ab8:	01 00 00 00 	nop 
    3abc:	01 00 00 00 	nop 

00003ac0 <SW_trap_0xac>:
    3ac0:	91 d0 20 00 	ta  0
    3ac4:	01 00 00 00 	nop 
    3ac8:	01 00 00 00 	nop 
    3acc:	01 00 00 00 	nop 

00003ad0 <SW_trap_0xad>:
    3ad0:	91 d0 20 00 	ta  0
    3ad4:	01 00 00 00 	nop 
    3ad8:	01 00 00 00 	nop 
    3adc:	01 00 00 00 	nop 

00003ae0 <SW_trap_0xae>:
    3ae0:	91 d0 20 00 	ta  0
    3ae4:	01 00 00 00 	nop 
    3ae8:	01 00 00 00 	nop 
    3aec:	01 00 00 00 	nop 

00003af0 <SW_trap_0xaf>:
    3af0:	91 d0 20 00 	ta  0
    3af4:	01 00 00 00 	nop 
    3af8:	01 00 00 00 	nop 
    3afc:	01 00 00 00 	nop 

00003b00 <SW_trap_0xb0>:
    3b00:	91 d0 20 00 	ta  0
    3b04:	01 00 00 00 	nop 
    3b08:	01 00 00 00 	nop 
    3b0c:	01 00 00 00 	nop 

00003b10 <SW_trap_0xb1>:
    3b10:	91 d0 20 00 	ta  0
    3b14:	01 00 00 00 	nop 
    3b18:	01 00 00 00 	nop 
    3b1c:	01 00 00 00 	nop 

00003b20 <SW_trap_0xb2>:
    3b20:	91 d0 20 00 	ta  0
    3b24:	01 00 00 00 	nop 
    3b28:	01 00 00 00 	nop 
    3b2c:	01 00 00 00 	nop 

00003b30 <SW_trap_0xb3>:
    3b30:	91 d0 20 00 	ta  0
    3b34:	01 00 00 00 	nop 
    3b38:	01 00 00 00 	nop 
    3b3c:	01 00 00 00 	nop 

00003b40 <SW_trap_0xb4>:
    3b40:	91 d0 20 00 	ta  0
    3b44:	01 00 00 00 	nop 
    3b48:	01 00 00 00 	nop 
    3b4c:	01 00 00 00 	nop 

00003b50 <SW_trap_0xb5>:
    3b50:	91 d0 20 00 	ta  0
    3b54:	01 00 00 00 	nop 
    3b58:	01 00 00 00 	nop 
    3b5c:	01 00 00 00 	nop 

00003b60 <SW_trap_0xb6>:
    3b60:	91 d0 20 00 	ta  0
    3b64:	01 00 00 00 	nop 
    3b68:	01 00 00 00 	nop 
    3b6c:	01 00 00 00 	nop 

00003b70 <SW_trap_0xb7>:
    3b70:	91 d0 20 00 	ta  0
    3b74:	01 00 00 00 	nop 
    3b78:	01 00 00 00 	nop 
    3b7c:	01 00 00 00 	nop 

00003b80 <SW_trap_0xb8>:
    3b80:	91 d0 20 00 	ta  0
    3b84:	01 00 00 00 	nop 
    3b88:	01 00 00 00 	nop 
    3b8c:	01 00 00 00 	nop 

00003b90 <SW_trap_0xb9>:
    3b90:	91 d0 20 00 	ta  0
    3b94:	01 00 00 00 	nop 
    3b98:	01 00 00 00 	nop 
    3b9c:	01 00 00 00 	nop 

00003ba0 <SW_trap_0xba>:
    3ba0:	91 d0 20 00 	ta  0
    3ba4:	01 00 00 00 	nop 
    3ba8:	01 00 00 00 	nop 
    3bac:	01 00 00 00 	nop 

00003bb0 <SW_trap_0xbb>:
    3bb0:	91 d0 20 00 	ta  0
    3bb4:	01 00 00 00 	nop 
    3bb8:	01 00 00 00 	nop 
    3bbc:	01 00 00 00 	nop 

00003bc0 <SW_trap_0xbc>:
    3bc0:	91 d0 20 00 	ta  0
    3bc4:	01 00 00 00 	nop 
    3bc8:	01 00 00 00 	nop 
    3bcc:	01 00 00 00 	nop 

00003bd0 <SW_trap_0xbd>:
    3bd0:	91 d0 20 00 	ta  0
    3bd4:	01 00 00 00 	nop 
    3bd8:	01 00 00 00 	nop 
    3bdc:	01 00 00 00 	nop 

00003be0 <SW_trap_0xbe>:
    3be0:	91 d0 20 00 	ta  0
    3be4:	01 00 00 00 	nop 
    3be8:	01 00 00 00 	nop 
    3bec:	01 00 00 00 	nop 

00003bf0 <SW_trap_0xbf>:
    3bf0:	91 d0 20 00 	ta  0
    3bf4:	01 00 00 00 	nop 
    3bf8:	01 00 00 00 	nop 
    3bfc:	01 00 00 00 	nop 

00003c00 <SW_trap_0xc0>:
    3c00:	91 d0 20 00 	ta  0
    3c04:	01 00 00 00 	nop 
    3c08:	01 00 00 00 	nop 
    3c0c:	01 00 00 00 	nop 

00003c10 <SW_trap_0xc1>:
    3c10:	91 d0 20 00 	ta  0
    3c14:	01 00 00 00 	nop 
    3c18:	01 00 00 00 	nop 
    3c1c:	01 00 00 00 	nop 

00003c20 <SW_trap_0xc2>:
    3c20:	91 d0 20 00 	ta  0
    3c24:	01 00 00 00 	nop 
    3c28:	01 00 00 00 	nop 
    3c2c:	01 00 00 00 	nop 

00003c30 <SW_trap_0xc3>:
    3c30:	91 d0 20 00 	ta  0
    3c34:	01 00 00 00 	nop 
    3c38:	01 00 00 00 	nop 
    3c3c:	01 00 00 00 	nop 

00003c40 <SW_trap_0xc4>:
    3c40:	91 d0 20 00 	ta  0
    3c44:	01 00 00 00 	nop 
    3c48:	01 00 00 00 	nop 
    3c4c:	01 00 00 00 	nop 

00003c50 <SW_trap_0xc5>:
    3c50:	91 d0 20 00 	ta  0
    3c54:	01 00 00 00 	nop 
    3c58:	01 00 00 00 	nop 
    3c5c:	01 00 00 00 	nop 

00003c60 <SW_trap_0xc6>:
    3c60:	91 d0 20 00 	ta  0
    3c64:	01 00 00 00 	nop 
    3c68:	01 00 00 00 	nop 
    3c6c:	01 00 00 00 	nop 

00003c70 <SW_trap_0xc7>:
    3c70:	91 d0 20 00 	ta  0
    3c74:	01 00 00 00 	nop 
    3c78:	01 00 00 00 	nop 
    3c7c:	01 00 00 00 	nop 

00003c80 <SW_trap_0xc8>:
    3c80:	91 d0 20 00 	ta  0
    3c84:	01 00 00 00 	nop 
    3c88:	01 00 00 00 	nop 
    3c8c:	01 00 00 00 	nop 

00003c90 <SW_trap_0xc9>:
    3c90:	91 d0 20 00 	ta  0
    3c94:	01 00 00 00 	nop 
    3c98:	01 00 00 00 	nop 
    3c9c:	01 00 00 00 	nop 

00003ca0 <SW_trap_0xca>:
    3ca0:	91 d0 20 00 	ta  0
    3ca4:	01 00 00 00 	nop 
    3ca8:	01 00 00 00 	nop 
    3cac:	01 00 00 00 	nop 

00003cb0 <SW_trap_0xcb>:
    3cb0:	91 d0 20 00 	ta  0
    3cb4:	01 00 00 00 	nop 
    3cb8:	01 00 00 00 	nop 
    3cbc:	01 00 00 00 	nop 

00003cc0 <SW_trap_0xcc>:
    3cc0:	91 d0 20 00 	ta  0
    3cc4:	01 00 00 00 	nop 
    3cc8:	01 00 00 00 	nop 
    3ccc:	01 00 00 00 	nop 

00003cd0 <SW_trap_0xcd>:
    3cd0:	91 d0 20 00 	ta  0
    3cd4:	01 00 00 00 	nop 
    3cd8:	01 00 00 00 	nop 
    3cdc:	01 00 00 00 	nop 

00003ce0 <SW_trap_0xce>:
    3ce0:	91 d0 20 00 	ta  0
    3ce4:	01 00 00 00 	nop 
    3ce8:	01 00 00 00 	nop 
    3cec:	01 00 00 00 	nop 

00003cf0 <SW_trap_0xcf>:
    3cf0:	91 d0 20 00 	ta  0
    3cf4:	01 00 00 00 	nop 
    3cf8:	01 00 00 00 	nop 
    3cfc:	01 00 00 00 	nop 

00003d00 <SW_trap_0xd0>:
    3d00:	91 d0 20 00 	ta  0
    3d04:	01 00 00 00 	nop 
    3d08:	01 00 00 00 	nop 
    3d0c:	01 00 00 00 	nop 

00003d10 <SW_trap_0xd1>:
    3d10:	91 d0 20 00 	ta  0
    3d14:	01 00 00 00 	nop 
    3d18:	01 00 00 00 	nop 
    3d1c:	01 00 00 00 	nop 

00003d20 <SW_trap_0xd2>:
    3d20:	91 d0 20 00 	ta  0
    3d24:	01 00 00 00 	nop 
    3d28:	01 00 00 00 	nop 
    3d2c:	01 00 00 00 	nop 

00003d30 <SW_trap_0xd3>:
    3d30:	91 d0 20 00 	ta  0
    3d34:	01 00 00 00 	nop 
    3d38:	01 00 00 00 	nop 
    3d3c:	01 00 00 00 	nop 

00003d40 <SW_trap_0xd4>:
    3d40:	91 d0 20 00 	ta  0
    3d44:	01 00 00 00 	nop 
    3d48:	01 00 00 00 	nop 
    3d4c:	01 00 00 00 	nop 

00003d50 <SW_trap_0xd5>:
    3d50:	91 d0 20 00 	ta  0
    3d54:	01 00 00 00 	nop 
    3d58:	01 00 00 00 	nop 
    3d5c:	01 00 00 00 	nop 

00003d60 <SW_trap_0xd6>:
    3d60:	91 d0 20 00 	ta  0
    3d64:	01 00 00 00 	nop 
    3d68:	01 00 00 00 	nop 
    3d6c:	01 00 00 00 	nop 

00003d70 <SW_trap_0xd7>:
    3d70:	91 d0 20 00 	ta  0
    3d74:	01 00 00 00 	nop 
    3d78:	01 00 00 00 	nop 
    3d7c:	01 00 00 00 	nop 

00003d80 <SW_trap_0xd8>:
    3d80:	91 d0 20 00 	ta  0
    3d84:	01 00 00 00 	nop 
    3d88:	01 00 00 00 	nop 
    3d8c:	01 00 00 00 	nop 

00003d90 <SW_trap_0xd9>:
    3d90:	91 d0 20 00 	ta  0
    3d94:	01 00 00 00 	nop 
    3d98:	01 00 00 00 	nop 
    3d9c:	01 00 00 00 	nop 

00003da0 <SW_trap_0xda>:
    3da0:	91 d0 20 00 	ta  0
    3da4:	01 00 00 00 	nop 
    3da8:	01 00 00 00 	nop 
    3dac:	01 00 00 00 	nop 

00003db0 <SW_trap_0xdb>:
    3db0:	91 d0 20 00 	ta  0
    3db4:	01 00 00 00 	nop 
    3db8:	01 00 00 00 	nop 
    3dbc:	01 00 00 00 	nop 

00003dc0 <SW_trap_0xdc>:
    3dc0:	91 d0 20 00 	ta  0
    3dc4:	01 00 00 00 	nop 
    3dc8:	01 00 00 00 	nop 
    3dcc:	01 00 00 00 	nop 

00003dd0 <SW_trap_0xdd>:
    3dd0:	91 d0 20 00 	ta  0
    3dd4:	01 00 00 00 	nop 
    3dd8:	01 00 00 00 	nop 
    3ddc:	01 00 00 00 	nop 

00003de0 <SW_trap_0xde>:
    3de0:	91 d0 20 00 	ta  0
    3de4:	01 00 00 00 	nop 
    3de8:	01 00 00 00 	nop 
    3dec:	01 00 00 00 	nop 

00003df0 <SW_trap_0xdf>:
    3df0:	91 d0 20 00 	ta  0
    3df4:	01 00 00 00 	nop 
    3df8:	01 00 00 00 	nop 
    3dfc:	01 00 00 00 	nop 

00003e00 <SW_trap_0xe0>:
    3e00:	91 d0 20 00 	ta  0
    3e04:	01 00 00 00 	nop 
    3e08:	01 00 00 00 	nop 
    3e0c:	01 00 00 00 	nop 

00003e10 <SW_trap_0xe1>:
    3e10:	91 d0 20 00 	ta  0
    3e14:	01 00 00 00 	nop 
    3e18:	01 00 00 00 	nop 
    3e1c:	01 00 00 00 	nop 

00003e20 <SW_trap_0xe2>:
    3e20:	91 d0 20 00 	ta  0
    3e24:	01 00 00 00 	nop 
    3e28:	01 00 00 00 	nop 
    3e2c:	01 00 00 00 	nop 

00003e30 <SW_trap_0xe3>:
    3e30:	91 d0 20 00 	ta  0
    3e34:	01 00 00 00 	nop 
    3e38:	01 00 00 00 	nop 
    3e3c:	01 00 00 00 	nop 

00003e40 <SW_trap_0xe4>:
    3e40:	91 d0 20 00 	ta  0
    3e44:	01 00 00 00 	nop 
    3e48:	01 00 00 00 	nop 
    3e4c:	01 00 00 00 	nop 

00003e50 <SW_trap_0xe5>:
    3e50:	91 d0 20 00 	ta  0
    3e54:	01 00 00 00 	nop 
    3e58:	01 00 00 00 	nop 
    3e5c:	01 00 00 00 	nop 

00003e60 <SW_trap_0xe6>:
    3e60:	91 d0 20 00 	ta  0
    3e64:	01 00 00 00 	nop 
    3e68:	01 00 00 00 	nop 
    3e6c:	01 00 00 00 	nop 

00003e70 <SW_trap_0xe7>:
    3e70:	91 d0 20 00 	ta  0
    3e74:	01 00 00 00 	nop 
    3e78:	01 00 00 00 	nop 
    3e7c:	01 00 00 00 	nop 

00003e80 <SW_trap_0xe8>:
    3e80:	91 d0 20 00 	ta  0
    3e84:	01 00 00 00 	nop 
    3e88:	01 00 00 00 	nop 
    3e8c:	01 00 00 00 	nop 

00003e90 <SW_trap_0xe9>:
    3e90:	91 d0 20 00 	ta  0
    3e94:	01 00 00 00 	nop 
    3e98:	01 00 00 00 	nop 
    3e9c:	01 00 00 00 	nop 

00003ea0 <SW_trap_0xea>:
    3ea0:	91 d0 20 00 	ta  0
    3ea4:	01 00 00 00 	nop 
    3ea8:	01 00 00 00 	nop 
    3eac:	01 00 00 00 	nop 

00003eb0 <SW_trap_0xeb>:
    3eb0:	91 d0 20 00 	ta  0
    3eb4:	01 00 00 00 	nop 
    3eb8:	01 00 00 00 	nop 
    3ebc:	01 00 00 00 	nop 

00003ec0 <SW_trap_0xec>:
    3ec0:	91 d0 20 00 	ta  0
    3ec4:	01 00 00 00 	nop 
    3ec8:	01 00 00 00 	nop 
    3ecc:	01 00 00 00 	nop 

00003ed0 <SW_trap_0xed>:
    3ed0:	91 d0 20 00 	ta  0
    3ed4:	01 00 00 00 	nop 
    3ed8:	01 00 00 00 	nop 
    3edc:	01 00 00 00 	nop 

00003ee0 <SW_trap_0xee>:
    3ee0:	91 d0 20 00 	ta  0
    3ee4:	01 00 00 00 	nop 
    3ee8:	01 00 00 00 	nop 
    3eec:	01 00 00 00 	nop 

00003ef0 <SW_trap_0xef>:
    3ef0:	91 d0 20 00 	ta  0
    3ef4:	01 00 00 00 	nop 
    3ef8:	01 00 00 00 	nop 
    3efc:	01 00 00 00 	nop 

00003f00 <SW_trap_0xf0>:
    3f00:	91 d0 20 00 	ta  0
    3f04:	01 00 00 00 	nop 
    3f08:	01 00 00 00 	nop 
    3f0c:	01 00 00 00 	nop 

00003f10 <SW_trap_0xf1>:
    3f10:	91 d0 20 00 	ta  0
    3f14:	01 00 00 00 	nop 
    3f18:	01 00 00 00 	nop 
    3f1c:	01 00 00 00 	nop 

00003f20 <SW_trap_0xf2>:
    3f20:	91 d0 20 00 	ta  0
    3f24:	01 00 00 00 	nop 
    3f28:	01 00 00 00 	nop 
    3f2c:	01 00 00 00 	nop 

00003f30 <SW_trap_0xf3>:
    3f30:	91 d0 20 00 	ta  0
    3f34:	01 00 00 00 	nop 
    3f38:	01 00 00 00 	nop 
    3f3c:	01 00 00 00 	nop 

00003f40 <SW_trap_0xf4>:
    3f40:	91 d0 20 00 	ta  0
    3f44:	01 00 00 00 	nop 
    3f48:	01 00 00 00 	nop 
    3f4c:	01 00 00 00 	nop 

00003f50 <SW_trap_0xf5>:
    3f50:	91 d0 20 00 	ta  0
    3f54:	01 00 00 00 	nop 
    3f58:	01 00 00 00 	nop 
    3f5c:	01 00 00 00 	nop 

00003f60 <SW_trap_0xf6>:
    3f60:	91 d0 20 00 	ta  0
    3f64:	01 00 00 00 	nop 
    3f68:	01 00 00 00 	nop 
    3f6c:	01 00 00 00 	nop 

00003f70 <SW_trap_0xf7>:
    3f70:	91 d0 20 00 	ta  0
    3f74:	01 00 00 00 	nop 
    3f78:	01 00 00 00 	nop 
    3f7c:	01 00 00 00 	nop 

00003f80 <SW_trap_0xf8>:
    3f80:	91 d0 20 00 	ta  0
    3f84:	01 00 00 00 	nop 
    3f88:	01 00 00 00 	nop 
    3f8c:	01 00 00 00 	nop 

00003f90 <SW_trap_0xf9>:
    3f90:	91 d0 20 00 	ta  0
    3f94:	01 00 00 00 	nop 
    3f98:	01 00 00 00 	nop 
    3f9c:	01 00 00 00 	nop 

00003fa0 <SW_trap_0xfa>:
    3fa0:	91 d0 20 00 	ta  0
    3fa4:	01 00 00 00 	nop 
    3fa8:	01 00 00 00 	nop 
    3fac:	01 00 00 00 	nop 

00003fb0 <SW_trap_0xfb>:
    3fb0:	91 d0 20 00 	ta  0
    3fb4:	01 00 00 00 	nop 
    3fb8:	01 00 00 00 	nop 
    3fbc:	01 00 00 00 	nop 

00003fc0 <SW_trap_0xfc>:
    3fc0:	91 d0 20 00 	ta  0
    3fc4:	01 00 00 00 	nop 
    3fc8:	01 00 00 00 	nop 
    3fcc:	01 00 00 00 	nop 

00003fd0 <SW_trap_0xfd>:
    3fd0:	91 d0 20 00 	ta  0
    3fd4:	01 00 00 00 	nop 
    3fd8:	01 00 00 00 	nop 
    3fdc:	01 00 00 00 	nop 

00003fe0 <SW_trap_0xfe>:
    3fe0:	91 d0 20 00 	ta  0
    3fe4:	01 00 00 00 	nop 
    3fe8:	01 00 00 00 	nop 
    3fec:	01 00 00 00 	nop 
    3ff0:	01 00 00 00 	nop 
    3ff4:	01 00 00 00 	nop 

00003ff8 <main>:
    3ff8:	9d e3 bf a0 	save  %sp, -96, %sp
    3ffc:	7f ff f0 14 	call  4c <gen>
    4000:	b2 10 22 00 	mov  0x200, %i1
    4004:	7f ff f0 18 	call  64 <datax>
    4008:	b0 10 00 08 	mov  %o0, %i0
    400c:	7f ff f0 1c 	call  7c <FFT>
    4010:	95 e8 00 08 	restore  %g0, %o0, %o2

00004014 <__sparc_get_pc_thunk.l7>:
    4014:	81 c3 e0 08 	retl 
    4018:	ae 03 c0 17 	add  %o7, %l7, %l7
