
.//main.elf:     file format elf32-sparc


Disassembly of section .text:

00000000 <_start>:
       0:	9c 10 30 00 	mov  -4096, %sp
       4:	bc 10 30 00 	mov  -4096, %fp
       8:	a0 10 20 01 	mov  1, %l0
       c:	81 94 20 00 	mov  %l0, %wim
      10:	21 00 00 18 	sethi  %hi(0x6000), %l0
      14:	a0 14 20 00 	mov  %l0, %l0	! 6000 <trap_table_base>
      18:	81 9c 20 00 	mov  %l0, %tbr
      1c:	40 00 0e f9 	call  3c00 <page_table_setup>
      20:	01 00 00 00 	nop 
      24:	40 00 0e ff 	call  3c20 <set_context_table_pointer>
      28:	01 00 00 00 	nop 
      2c:	21 00 00 04 	sethi  %hi(0x1000), %l0
      30:	a0 14 20 e7 	or  %l0, 0xe7, %l0	! 10e7 <__ieee754_rem_pio2+0x1bb>
      34:	81 88 00 10 	mov  %l0, %psr
      38:	90 10 20 01 	mov  1, %o0
      3c:	d0 a0 00 80 	sta  %o0, [ %g0 ] #ASI_N
      40:	40 00 02 f7 	call  c1c <main>
      44:	01 00 00 00 	nop 
      48:	91 d0 20 00 	ta  0

0000004c <fft_compute_split_twiddle>:
      4c:	9d e3 bf 78 	save  %sp, -136, %sp
      50:	f0 27 a0 44 	st  %i0, [ %fp + 0x44 ]
      54:	f2 27 a0 48 	st  %i1, [ %fp + 0x48 ]
      58:	c2 07 a0 48 	ld  [ %fp + 0x48 ], %g1
      5c:	83 38 60 03 	sra  %g1, 3, %g1
      60:	c2 27 bf f4 	st  %g1, [ %fp + -12 ]
      64:	c2 07 a0 48 	ld  [ %fp + 0x48 ], %g1
      68:	c2 27 bf e4 	st  %g1, [ %fp + -28 ]
      6c:	d5 07 bf e4 	ld  [ %fp + -28 ], %f10
      70:	91 a0 19 0a 	fitod  %f10, %f8
      74:	03 10 00 00 	sethi  %hi(0x40000000), %g1
      78:	82 10 60 00 	mov  %g1, %g1	! 40000000 <__sparc_get_pc_thunk.l7+0x3fff9008>
      7c:	d5 18 40 00 	ldd  [ %g1 ], %f10
      80:	91 a2 89 c8 	fdivd  %f10, %f8, %f8
      84:	91 a0 18 c8 	fdtos  %f8, %f8
      88:	d1 27 bf f0 	st  %f8, [ %fp + -16 ]
      8c:	d1 07 bf f0 	ld  [ %fp + -16 ], %f8
      90:	d1 27 bf f8 	st  %f8, [ %fp + -8 ]
      94:	82 10 20 02 	mov  2, %g1
      98:	c2 27 bf fc 	st  %g1, [ %fp + -4 ]
      9c:	10 80 00 4d 	b  1d0 <fft_compute_split_twiddle+0x184>
      a0:	01 00 00 00 	nop 
      a4:	d3 07 bf f8 	ld  [ %fp + -8 ], %f9
      a8:	03 10 00 00 	sethi  %hi(0x40000000), %g1
      ac:	82 10 60 08 	or  %g1, 8, %g1	! 40000008 <__sparc_get_pc_thunk.l7+0x3fff9010>
      b0:	d1 00 40 00 	ld  [ %g1 ], %f8
      b4:	91 a2 49 28 	fmuls  %f9, %f8, %f8
      b8:	d1 27 bf ec 	st  %f8, [ %fp + -20 ]
      bc:	c2 07 bf fc 	ld  [ %fp + -4 ], %g1
      c0:	ba 00 7f ff 	add  %g1, -1, %i5
      c4:	d1 07 bf f8 	ld  [ %fp + -8 ], %f8
      c8:	91 a0 19 28 	fstod  %f8, %f8
      cc:	d1 3f bf d8 	std  %f8, [ %fp + -40 ]
      d0:	d0 1f bf d8 	ldd  [ %fp + -40 ], %o0
      d4:	40 00 03 1c 	call  d44 <__GI_cos>
      d8:	01 00 00 00 	nop 
      dc:	91 a0 00 20 	fmovs  %f0, %f8
      e0:	93 a0 00 21 	fmovs  %f1, %f9
      e4:	91 a0 18 c8 	fdtos  %f8, %f8
      e8:	c4 07 a0 44 	ld  [ %fp + 0x44 ], %g2
      ec:	83 2f 60 02 	sll  %i5, 2, %g1
      f0:	d1 20 80 01 	st  %f8, [ %g2 + %g1 ]
      f4:	c2 07 a0 44 	ld  [ %fp + 0x44 ], %g1
      f8:	ba 00 60 08 	add  %g1, 8, %i5
      fc:	c2 07 bf fc 	ld  [ %fp + -4 ], %g1
     100:	b8 00 7f ff 	add  %g1, -1, %i4
     104:	d1 07 bf f8 	ld  [ %fp + -8 ], %f8
     108:	91 a0 19 28 	fstod  %f8, %f8
     10c:	d1 3f bf d8 	std  %f8, [ %fp + -40 ]
     110:	d0 1f bf d8 	ldd  [ %fp + -40 ], %o0
     114:	40 00 03 48 	call  e34 <__GI_sin>
     118:	01 00 00 00 	nop 
     11c:	91 a0 00 20 	fmovs  %f0, %f8
     120:	93 a0 00 21 	fmovs  %f1, %f9
     124:	91 a0 18 c8 	fdtos  %f8, %f8
     128:	83 2f 20 02 	sll  %i4, 2, %g1
     12c:	d1 27 40 01 	st  %f8, [ %i5 + %g1 ]
     130:	c2 07 a0 44 	ld  [ %fp + 0x44 ], %g1
     134:	ba 00 60 10 	add  %g1, 0x10, %i5
     138:	c2 07 bf fc 	ld  [ %fp + -4 ], %g1
     13c:	b8 00 7f ff 	add  %g1, -1, %i4
     140:	d1 07 bf ec 	ld  [ %fp + -20 ], %f8
     144:	91 a0 19 28 	fstod  %f8, %f8
     148:	d1 3f bf d8 	std  %f8, [ %fp + -40 ]
     14c:	d0 1f bf d8 	ldd  [ %fp + -40 ], %o0
     150:	40 00 02 fd 	call  d44 <__GI_cos>
     154:	01 00 00 00 	nop 
     158:	91 a0 00 20 	fmovs  %f0, %f8
     15c:	93 a0 00 21 	fmovs  %f1, %f9
     160:	91 a0 18 c8 	fdtos  %f8, %f8
     164:	83 2f 20 02 	sll  %i4, 2, %g1
     168:	d1 27 40 01 	st  %f8, [ %i5 + %g1 ]
     16c:	c2 07 a0 44 	ld  [ %fp + 0x44 ], %g1
     170:	ba 00 60 18 	add  %g1, 0x18, %i5
     174:	c2 07 bf fc 	ld  [ %fp + -4 ], %g1
     178:	b8 00 7f ff 	add  %g1, -1, %i4
     17c:	d1 07 bf ec 	ld  [ %fp + -20 ], %f8
     180:	91 a0 19 28 	fstod  %f8, %f8
     184:	d1 3f bf d8 	std  %f8, [ %fp + -40 ]
     188:	d0 1f bf d8 	ldd  [ %fp + -40 ], %o0
     18c:	40 00 03 2a 	call  e34 <__GI_sin>
     190:	01 00 00 00 	nop 
     194:	91 a0 00 20 	fmovs  %f0, %f8
     198:	93 a0 00 21 	fmovs  %f1, %f9
     19c:	91 a0 18 c8 	fdtos  %f8, %f8
     1a0:	83 2f 20 02 	sll  %i4, 2, %g1
     1a4:	d1 27 40 01 	st  %f8, [ %i5 + %g1 ]
     1a8:	c2 07 bf fc 	ld  [ %fp + -4 ], %g1
     1ac:	c2 27 bf e4 	st  %g1, [ %fp + -28 ]
     1b0:	d1 07 bf e4 	ld  [ %fp + -28 ], %f8
     1b4:	93 a0 18 88 	fitos  %f8, %f9
     1b8:	d1 07 bf f0 	ld  [ %fp + -16 ], %f8
     1bc:	91 a2 49 28 	fmuls  %f9, %f8, %f8
     1c0:	d1 27 bf f8 	st  %f8, [ %fp + -8 ]
     1c4:	c2 07 bf fc 	ld  [ %fp + -4 ], %g1
     1c8:	82 00 60 01 	inc  %g1
     1cc:	c2 27 bf fc 	st  %g1, [ %fp + -4 ]
     1d0:	c4 07 bf fc 	ld  [ %fp + -4 ], %g2
     1d4:	c2 07 bf f4 	ld  [ %fp + -12 ], %g1
     1d8:	80 a0 80 01 	cmp  %g2, %g1
     1dc:	04 bf ff b2 	ble  a4 <fft_compute_split_twiddle+0x58>
     1e0:	01 00 00 00 	nop 
     1e4:	81 e8 00 00 	restore 
     1e8:	81 c3 e0 08 	retl 
     1ec:	01 00 00 00 	nop 

000001f0 <realfft_split>:
     1f0:	9d e3 bf 28 	save  %sp, -216, %sp
     1f4:	f0 27 a0 44 	st  %i0, [ %fp + 0x44 ]
     1f8:	f2 27 a0 48 	st  %i1, [ %fp + 0x48 ]
     1fc:	f4 27 a0 4c 	st  %i2, [ %fp + 0x4c ]
     200:	03 10 00 00 	sethi  %hi(0x40000000), %g1
     204:	82 10 60 0c 	or  %g1, 0xc, %g1	! 4000000c <__sparc_get_pc_thunk.l7+0x3fff9014>
     208:	d1 00 40 00 	ld  [ %g1 ], %f8
     20c:	d1 27 bf e0 	st  %f8, [ %fp + -32 ]
     210:	c2 07 a0 48 	ld  [ %fp + 0x48 ], %g1
     214:	82 00 7f ff 	add  %g1, -1, %g1
     218:	c2 27 bf dc 	st  %g1, [ %fp + -36 ]
     21c:	c0 27 bf fc 	clr  [ %fp + -4 ]
     220:	c0 27 bf f8 	clr  [ %fp + -8 ]
     224:	c2 07 a0 48 	ld  [ %fp + 0x48 ], %g1
     228:	85 30 60 1f 	srl  %g1, 0x1f, %g2
     22c:	82 00 80 01 	add  %g2, %g1, %g1
     230:	83 38 60 01 	sra  %g1, 1, %g1
     234:	c2 27 bf e4 	st  %g1, [ %fp + -28 ]
     238:	10 80 00 34 	b  308 <realfft_split+0x118>
     23c:	01 00 00 00 	nop 
     240:	c4 07 bf fc 	ld  [ %fp + -4 ], %g2
     244:	c2 07 bf f8 	ld  [ %fp + -8 ], %g1
     248:	80 a0 80 01 	cmp  %g2, %g1
     24c:	16 80 00 18 	bge  2ac <realfft_split+0xbc>
     250:	01 00 00 00 	nop 
     254:	c2 07 bf f8 	ld  [ %fp + -8 ], %g1
     258:	83 28 60 02 	sll  %g1, 2, %g1
     25c:	c4 07 a0 44 	ld  [ %fp + 0x44 ], %g2
     260:	82 00 80 01 	add  %g2, %g1, %g1
     264:	d1 00 40 00 	ld  [ %g1 ], %f8
     268:	d1 27 bf d8 	st  %f8, [ %fp + -40 ]
     26c:	c2 07 bf f8 	ld  [ %fp + -8 ], %g1
     270:	83 28 60 02 	sll  %g1, 2, %g1
     274:	c4 07 a0 44 	ld  [ %fp + 0x44 ], %g2
     278:	82 00 80 01 	add  %g2, %g1, %g1
     27c:	c4 07 bf fc 	ld  [ %fp + -4 ], %g2
     280:	85 28 a0 02 	sll  %g2, 2, %g2
     284:	c6 07 a0 44 	ld  [ %fp + 0x44 ], %g3
     288:	84 00 c0 02 	add  %g3, %g2, %g2
     28c:	d1 00 80 00 	ld  [ %g2 ], %f8
     290:	d1 20 40 00 	st  %f8, [ %g1 ]
     294:	c2 07 bf fc 	ld  [ %fp + -4 ], %g1
     298:	83 28 60 02 	sll  %g1, 2, %g1
     29c:	c4 07 a0 44 	ld  [ %fp + 0x44 ], %g2
     2a0:	82 00 80 01 	add  %g2, %g1, %g1
     2a4:	d1 07 bf d8 	ld  [ %fp + -40 ], %f8
     2a8:	d1 20 40 00 	st  %f8, [ %g1 ]
     2ac:	c2 07 bf e4 	ld  [ %fp + -28 ], %g1
     2b0:	c2 27 bf f4 	st  %g1, [ %fp + -12 ]
     2b4:	10 80 00 09 	b  2d8 <realfft_split+0xe8>
     2b8:	01 00 00 00 	nop 
     2bc:	c4 07 bf f8 	ld  [ %fp + -8 ], %g2
     2c0:	c2 07 bf f4 	ld  [ %fp + -12 ], %g1
     2c4:	82 20 80 01 	sub  %g2, %g1, %g1
     2c8:	c2 27 bf f8 	st  %g1, [ %fp + -8 ]
     2cc:	c2 07 bf f4 	ld  [ %fp + -12 ], %g1
     2d0:	83 38 60 01 	sra  %g1, 1, %g1
     2d4:	c2 27 bf f4 	st  %g1, [ %fp + -12 ]
     2d8:	c4 07 bf f4 	ld  [ %fp + -12 ], %g2
     2dc:	c2 07 bf f8 	ld  [ %fp + -8 ], %g1
     2e0:	80 a0 80 01 	cmp  %g2, %g1
     2e4:	04 bf ff f6 	ble  2bc <realfft_split+0xcc>
     2e8:	01 00 00 00 	nop 
     2ec:	c4 07 bf f8 	ld  [ %fp + -8 ], %g2
     2f0:	c2 07 bf f4 	ld  [ %fp + -12 ], %g1
     2f4:	82 00 80 01 	add  %g2, %g1, %g1
     2f8:	c2 27 bf f8 	st  %g1, [ %fp + -8 ]
     2fc:	c2 07 bf fc 	ld  [ %fp + -4 ], %g1
     300:	82 00 60 01 	inc  %g1
     304:	c2 27 bf fc 	st  %g1, [ %fp + -4 ]
     308:	c4 07 bf fc 	ld  [ %fp + -4 ], %g2
     30c:	c2 07 bf dc 	ld  [ %fp + -36 ], %g1
     310:	80 a0 80 01 	cmp  %g2, %g1
     314:	06 bf ff cb 	bl  240 <realfft_split+0x50>
     318:	01 00 00 00 	nop 
     31c:	c0 27 bf f0 	clr  [ %fp + -16 ]
     320:	82 10 20 04 	mov  4, %g1
     324:	c2 27 bf ec 	st  %g1, [ %fp + -20 ]
     328:	10 80 00 27 	b  3c4 <realfft_split+0x1d4>
     32c:	01 00 00 00 	nop 
     330:	c2 07 bf f0 	ld  [ %fp + -16 ], %g1
     334:	82 00 60 01 	inc  %g1
     338:	c2 27 bf e8 	st  %g1, [ %fp + -24 ]
     33c:	c2 07 bf f0 	ld  [ %fp + -16 ], %g1
     340:	83 28 60 02 	sll  %g1, 2, %g1
     344:	c4 07 a0 44 	ld  [ %fp + 0x44 ], %g2
     348:	82 00 80 01 	add  %g2, %g1, %g1
     34c:	d1 00 40 00 	ld  [ %g1 ], %f8
     350:	d1 27 bf d8 	st  %f8, [ %fp + -40 ]
     354:	c2 07 bf f0 	ld  [ %fp + -16 ], %g1
     358:	83 28 60 02 	sll  %g1, 2, %g1
     35c:	c4 07 a0 44 	ld  [ %fp + 0x44 ], %g2
     360:	82 00 80 01 	add  %g2, %g1, %g1
     364:	c4 07 bf e8 	ld  [ %fp + -24 ], %g2
     368:	85 28 a0 02 	sll  %g2, 2, %g2
     36c:	c6 07 a0 44 	ld  [ %fp + 0x44 ], %g3
     370:	84 00 c0 02 	add  %g3, %g2, %g2
     374:	d3 00 80 00 	ld  [ %g2 ], %f9
     378:	d1 07 bf d8 	ld  [ %fp + -40 ], %f8
     37c:	91 a2 48 28 	fadds  %f9, %f8, %f8
     380:	d1 20 40 00 	st  %f8, [ %g1 ]
     384:	c2 07 bf e8 	ld  [ %fp + -24 ], %g1
     388:	83 28 60 02 	sll  %g1, 2, %g1
     38c:	c4 07 a0 44 	ld  [ %fp + 0x44 ], %g2
     390:	82 00 80 01 	add  %g2, %g1, %g1
     394:	c4 07 bf e8 	ld  [ %fp + -24 ], %g2
     398:	85 28 a0 02 	sll  %g2, 2, %g2
     39c:	c6 07 a0 44 	ld  [ %fp + 0x44 ], %g3
     3a0:	84 00 c0 02 	add  %g3, %g2, %g2
     3a4:	d1 00 80 00 	ld  [ %g2 ], %f8
     3a8:	d3 07 bf d8 	ld  [ %fp + -40 ], %f9
     3ac:	91 a2 48 a8 	fsubs  %f9, %f8, %f8
     3b0:	d1 20 40 00 	st  %f8, [ %g1 ]
     3b4:	c4 07 bf f0 	ld  [ %fp + -16 ], %g2
     3b8:	c2 07 bf ec 	ld  [ %fp + -20 ], %g1
     3bc:	82 00 80 01 	add  %g2, %g1, %g1
     3c0:	c2 27 bf f0 	st  %g1, [ %fp + -16 ]
     3c4:	c4 07 bf f0 	ld  [ %fp + -16 ], %g2
     3c8:	c2 07 bf dc 	ld  [ %fp + -36 ], %g1
     3cc:	80 a0 80 01 	cmp  %g2, %g1
     3d0:	06 bf ff d8 	bl  330 <realfft_split+0x140>
     3d4:	01 00 00 00 	nop 
     3d8:	c2 07 bf ec 	ld  [ %fp + -20 ], %g1
     3dc:	82 00 40 01 	add  %g1, %g1, %g1
     3e0:	c2 27 bf ec 	st  %g1, [ %fp + -20 ]
     3e4:	c2 07 bf ec 	ld  [ %fp + -20 ], %g1
     3e8:	82 00 7f fe 	add  %g1, -2, %g1
     3ec:	c2 27 bf f0 	st  %g1, [ %fp + -16 ]
     3f0:	c2 07 bf ec 	ld  [ %fp + -20 ], %g1
     3f4:	82 00 40 01 	add  %g1, %g1, %g1
     3f8:	c2 27 bf ec 	st  %g1, [ %fp + -20 ]
     3fc:	c4 07 bf f0 	ld  [ %fp + -16 ], %g2
     400:	c2 07 bf dc 	ld  [ %fp + -36 ], %g1
     404:	80 a0 80 01 	cmp  %g2, %g1
     408:	06 bf ff ef 	bl  3c4 <realfft_split+0x1d4>
     40c:	01 00 00 00 	nop 
     410:	82 10 20 02 	mov  2, %g1	! 2 <_start+0x2>
     414:	c2 27 bf e4 	st  %g1, [ %fp + -28 ]
     418:	c2 07 a0 48 	ld  [ %fp + 0x48 ], %g1
     41c:	c2 27 bf f4 	st  %g1, [ %fp + -12 ]
     420:	10 80 01 f8 	b  c00 <realfft_split+0xa10>
     424:	01 00 00 00 	nop 
     428:	c2 07 bf e4 	ld  [ %fp + -28 ], %g1
     42c:	82 00 40 01 	add  %g1, %g1, %g1
     430:	c2 27 bf e4 	st  %g1, [ %fp + -28 ]
     434:	c2 07 bf e4 	ld  [ %fp + -28 ], %g1
     438:	83 38 60 02 	sra  %g1, 2, %g1
     43c:	c2 27 bf dc 	st  %g1, [ %fp + -36 ]
     440:	c2 07 bf e4 	ld  [ %fp + -28 ], %g1
     444:	83 38 60 03 	sra  %g1, 3, %g1
     448:	c2 27 bf d4 	st  %g1, [ %fp + -44 ]
     44c:	c2 07 a0 48 	ld  [ %fp + 0x48 ], %g1
     450:	85 38 60 1f 	sra  %g1, 0x1f, %g2
     454:	81 80 a0 00 	mov  %g2, %y
     458:	c4 07 bf e4 	ld  [ %fp + -28 ], %g2
     45c:	01 00 00 00 	nop 
     460:	01 00 00 00 	nop 
     464:	82 78 40 02 	sdiv  %g1, %g2, %g1
     468:	c2 27 bf d0 	st  %g1, [ %fp + -48 ]
     46c:	c0 27 bf e8 	clr  [ %fp + -24 ]
     470:	c2 07 bf e4 	ld  [ %fp + -28 ], %g1
     474:	82 00 40 01 	add  %g1, %g1, %g1
     478:	c2 27 bf ec 	st  %g1, [ %fp + -20 ]
     47c:	10 80 00 a7 	b  718 <realfft_split+0x528>
     480:	01 00 00 00 	nop 
     484:	c4 07 bf e8 	ld  [ %fp + -24 ], %g2
     488:	c2 07 bf dc 	ld  [ %fp + -36 ], %g1
     48c:	82 00 80 01 	add  %g2, %g1, %g1
     490:	c2 27 bf cc 	st  %g1, [ %fp + -52 ]
     494:	c4 07 bf cc 	ld  [ %fp + -52 ], %g2
     498:	c2 07 bf dc 	ld  [ %fp + -36 ], %g1
     49c:	82 00 80 01 	add  %g2, %g1, %g1
     4a0:	c2 27 bf c8 	st  %g1, [ %fp + -56 ]
     4a4:	c4 07 bf c8 	ld  [ %fp + -56 ], %g2
     4a8:	c2 07 bf dc 	ld  [ %fp + -36 ], %g1
     4ac:	82 00 80 01 	add  %g2, %g1, %g1
     4b0:	c2 27 bf c4 	st  %g1, [ %fp + -60 ]
     4b4:	c2 07 bf c4 	ld  [ %fp + -60 ], %g1
     4b8:	83 28 60 02 	sll  %g1, 2, %g1
     4bc:	c4 07 a0 44 	ld  [ %fp + 0x44 ], %g2
     4c0:	82 00 80 01 	add  %g2, %g1, %g1
     4c4:	d3 00 40 00 	ld  [ %g1 ], %f9
     4c8:	c2 07 bf c8 	ld  [ %fp + -56 ], %g1
     4cc:	83 28 60 02 	sll  %g1, 2, %g1
     4d0:	c4 07 a0 44 	ld  [ %fp + 0x44 ], %g2
     4d4:	82 00 80 01 	add  %g2, %g1, %g1
     4d8:	d1 00 40 00 	ld  [ %g1 ], %f8
     4dc:	91 a2 48 28 	fadds  %f9, %f8, %f8
     4e0:	d1 27 bf d8 	st  %f8, [ %fp + -40 ]
     4e4:	c2 07 bf c4 	ld  [ %fp + -60 ], %g1
     4e8:	83 28 60 02 	sll  %g1, 2, %g1
     4ec:	c4 07 a0 44 	ld  [ %fp + 0x44 ], %g2
     4f0:	82 00 80 01 	add  %g2, %g1, %g1
     4f4:	c4 07 bf c4 	ld  [ %fp + -60 ], %g2
     4f8:	85 28 a0 02 	sll  %g2, 2, %g2
     4fc:	c6 07 a0 44 	ld  [ %fp + 0x44 ], %g3
     500:	84 00 c0 02 	add  %g3, %g2, %g2
     504:	d3 00 80 00 	ld  [ %g2 ], %f9
     508:	c4 07 bf c8 	ld  [ %fp + -56 ], %g2
     50c:	85 28 a0 02 	sll  %g2, 2, %g2
     510:	c6 07 a0 44 	ld  [ %fp + 0x44 ], %g3
     514:	84 00 c0 02 	add  %g3, %g2, %g2
     518:	d1 00 80 00 	ld  [ %g2 ], %f8
     51c:	91 a2 48 a8 	fsubs  %f9, %f8, %f8
     520:	d1 20 40 00 	st  %f8, [ %g1 ]
     524:	c2 07 bf c8 	ld  [ %fp + -56 ], %g1
     528:	83 28 60 02 	sll  %g1, 2, %g1
     52c:	c4 07 a0 44 	ld  [ %fp + 0x44 ], %g2
     530:	82 00 80 01 	add  %g2, %g1, %g1
     534:	c4 07 bf e8 	ld  [ %fp + -24 ], %g2
     538:	85 28 a0 02 	sll  %g2, 2, %g2
     53c:	c6 07 a0 44 	ld  [ %fp + 0x44 ], %g3
     540:	84 00 c0 02 	add  %g3, %g2, %g2
     544:	d3 00 80 00 	ld  [ %g2 ], %f9
     548:	d1 07 bf d8 	ld  [ %fp + -40 ], %f8
     54c:	91 a2 48 a8 	fsubs  %f9, %f8, %f8
     550:	d1 20 40 00 	st  %f8, [ %g1 ]
     554:	c2 07 bf e8 	ld  [ %fp + -24 ], %g1
     558:	83 28 60 02 	sll  %g1, 2, %g1
     55c:	c4 07 a0 44 	ld  [ %fp + 0x44 ], %g2
     560:	82 00 80 01 	add  %g2, %g1, %g1
     564:	c4 07 bf e8 	ld  [ %fp + -24 ], %g2
     568:	85 28 a0 02 	sll  %g2, 2, %g2
     56c:	c6 07 a0 44 	ld  [ %fp + 0x44 ], %g3
     570:	84 00 c0 02 	add  %g3, %g2, %g2
     574:	d3 00 80 00 	ld  [ %g2 ], %f9
     578:	d1 07 bf d8 	ld  [ %fp + -40 ], %f8
     57c:	91 a2 48 28 	fadds  %f9, %f8, %f8
     580:	d1 20 40 00 	st  %f8, [ %g1 ]
     584:	c2 07 bf dc 	ld  [ %fp + -36 ], %g1
     588:	80 a0 60 01 	cmp  %g1, 1
     58c:	02 80 00 5f 	be  708 <realfft_split+0x518>
     590:	01 00 00 00 	nop 
     594:	c4 07 bf e8 	ld  [ %fp + -24 ], %g2
     598:	c2 07 bf d4 	ld  [ %fp + -44 ], %g1
     59c:	82 00 80 01 	add  %g2, %g1, %g1
     5a0:	c2 27 bf f0 	st  %g1, [ %fp + -16 ]
     5a4:	c4 07 bf cc 	ld  [ %fp + -52 ], %g2
     5a8:	c2 07 bf d4 	ld  [ %fp + -44 ], %g1
     5ac:	82 00 80 01 	add  %g2, %g1, %g1
     5b0:	c2 27 bf cc 	st  %g1, [ %fp + -52 ]
     5b4:	c4 07 bf c8 	ld  [ %fp + -56 ], %g2
     5b8:	c2 07 bf d4 	ld  [ %fp + -44 ], %g1
     5bc:	82 00 80 01 	add  %g2, %g1, %g1
     5c0:	c2 27 bf c8 	st  %g1, [ %fp + -56 ]
     5c4:	c4 07 bf c4 	ld  [ %fp + -60 ], %g2
     5c8:	c2 07 bf d4 	ld  [ %fp + -44 ], %g1
     5cc:	82 00 80 01 	add  %g2, %g1, %g1
     5d0:	c2 27 bf c4 	st  %g1, [ %fp + -60 ]
     5d4:	c2 07 bf c8 	ld  [ %fp + -56 ], %g1
     5d8:	83 28 60 02 	sll  %g1, 2, %g1
     5dc:	c4 07 a0 44 	ld  [ %fp + 0x44 ], %g2
     5e0:	82 00 80 01 	add  %g2, %g1, %g1
     5e4:	d3 00 40 00 	ld  [ %g1 ], %f9
     5e8:	c2 07 bf c4 	ld  [ %fp + -60 ], %g1
     5ec:	83 28 60 02 	sll  %g1, 2, %g1
     5f0:	c4 07 a0 44 	ld  [ %fp + 0x44 ], %g2
     5f4:	82 00 80 01 	add  %g2, %g1, %g1
     5f8:	d1 00 40 00 	ld  [ %g1 ], %f8
     5fc:	93 a2 48 28 	fadds  %f9, %f8, %f9
     600:	d1 07 bf e0 	ld  [ %fp + -32 ], %f8
     604:	91 a2 49 a8 	fdivs  %f9, %f8, %f8
     608:	d1 27 bf d8 	st  %f8, [ %fp + -40 ]
     60c:	c2 07 bf c8 	ld  [ %fp + -56 ], %g1
     610:	83 28 60 02 	sll  %g1, 2, %g1
     614:	c4 07 a0 44 	ld  [ %fp + 0x44 ], %g2
     618:	82 00 80 01 	add  %g2, %g1, %g1
     61c:	d3 00 40 00 	ld  [ %g1 ], %f9
     620:	c2 07 bf c4 	ld  [ %fp + -60 ], %g1
     624:	83 28 60 02 	sll  %g1, 2, %g1
     628:	c4 07 a0 44 	ld  [ %fp + 0x44 ], %g2
     62c:	82 00 80 01 	add  %g2, %g1, %g1
     630:	d1 00 40 00 	ld  [ %g1 ], %f8
     634:	93 a2 48 a8 	fsubs  %f9, %f8, %f9
     638:	d1 07 bf e0 	ld  [ %fp + -32 ], %f8
     63c:	91 a2 49 a8 	fdivs  %f9, %f8, %f8
     640:	d1 27 bf c0 	st  %f8, [ %fp + -64 ]
     644:	c2 07 bf c4 	ld  [ %fp + -60 ], %g1
     648:	83 28 60 02 	sll  %g1, 2, %g1
     64c:	c4 07 a0 44 	ld  [ %fp + 0x44 ], %g2
     650:	82 00 80 01 	add  %g2, %g1, %g1
     654:	c4 07 bf cc 	ld  [ %fp + -52 ], %g2
     658:	85 28 a0 02 	sll  %g2, 2, %g2
     65c:	c6 07 a0 44 	ld  [ %fp + 0x44 ], %g3
     660:	84 00 c0 02 	add  %g3, %g2, %g2
     664:	d3 00 80 00 	ld  [ %g2 ], %f9
     668:	d1 07 bf d8 	ld  [ %fp + -40 ], %f8
     66c:	91 a2 48 a8 	fsubs  %f9, %f8, %f8
     670:	d1 20 40 00 	st  %f8, [ %g1 ]
     674:	c2 07 bf c8 	ld  [ %fp + -56 ], %g1
     678:	83 28 60 02 	sll  %g1, 2, %g1
     67c:	c4 07 a0 44 	ld  [ %fp + 0x44 ], %g2
     680:	82 00 80 01 	add  %g2, %g1, %g1
     684:	c4 07 bf cc 	ld  [ %fp + -52 ], %g2
     688:	85 28 a0 02 	sll  %g2, 2, %g2
     68c:	c6 07 a0 44 	ld  [ %fp + 0x44 ], %g3
     690:	84 00 c0 02 	add  %g3, %g2, %g2
     694:	d1 00 80 00 	ld  [ %g2 ], %f8
     698:	93 a0 00 a8 	fnegs  %f8, %f9
     69c:	d1 07 bf d8 	ld  [ %fp + -40 ], %f8
     6a0:	91 a2 48 a8 	fsubs  %f9, %f8, %f8
     6a4:	d1 20 40 00 	st  %f8, [ %g1 ]
     6a8:	c2 07 bf cc 	ld  [ %fp + -52 ], %g1
     6ac:	83 28 60 02 	sll  %g1, 2, %g1
     6b0:	c4 07 a0 44 	ld  [ %fp + 0x44 ], %g2
     6b4:	82 00 80 01 	add  %g2, %g1, %g1
     6b8:	c4 07 bf f0 	ld  [ %fp + -16 ], %g2
     6bc:	85 28 a0 02 	sll  %g2, 2, %g2
     6c0:	c6 07 a0 44 	ld  [ %fp + 0x44 ], %g3
     6c4:	84 00 c0 02 	add  %g3, %g2, %g2
     6c8:	d3 00 80 00 	ld  [ %g2 ], %f9
     6cc:	d1 07 bf c0 	ld  [ %fp + -64 ], %f8
     6d0:	91 a2 48 a8 	fsubs  %f9, %f8, %f8
     6d4:	d1 20 40 00 	st  %f8, [ %g1 ]
     6d8:	c2 07 bf f0 	ld  [ %fp + -16 ], %g1
     6dc:	83 28 60 02 	sll  %g1, 2, %g1
     6e0:	c4 07 a0 44 	ld  [ %fp + 0x44 ], %g2
     6e4:	82 00 80 01 	add  %g2, %g1, %g1
     6e8:	c4 07 bf f0 	ld  [ %fp + -16 ], %g2
     6ec:	85 28 a0 02 	sll  %g2, 2, %g2
     6f0:	c6 07 a0 44 	ld  [ %fp + 0x44 ], %g3
     6f4:	84 00 c0 02 	add  %g3, %g2, %g2
     6f8:	d3 00 80 00 	ld  [ %g2 ], %f9
     6fc:	d1 07 bf c0 	ld  [ %fp + -64 ], %f8
     700:	91 a2 48 28 	fadds  %f9, %f8, %f8
     704:	d1 20 40 00 	st  %f8, [ %g1 ]
     708:	c4 07 bf e8 	ld  [ %fp + -24 ], %g2
     70c:	c2 07 bf ec 	ld  [ %fp + -20 ], %g1
     710:	82 00 80 01 	add  %g2, %g1, %g1
     714:	c2 27 bf e8 	st  %g1, [ %fp + -24 ]
     718:	c4 07 bf e8 	ld  [ %fp + -24 ], %g2
     71c:	c2 07 a0 48 	ld  [ %fp + 0x48 ], %g1
     720:	80 a0 80 01 	cmp  %g2, %g1
     724:	06 bf ff 58 	bl  484 <realfft_split+0x294>
     728:	01 00 00 00 	nop 
     72c:	c2 07 bf ec 	ld  [ %fp + -20 ], %g1
     730:	82 00 40 01 	add  %g1, %g1, %g1
     734:	c2 27 bf ec 	st  %g1, [ %fp + -20 ]
     738:	c4 07 bf ec 	ld  [ %fp + -20 ], %g2
     73c:	c2 07 bf e4 	ld  [ %fp + -28 ], %g1
     740:	82 20 80 01 	sub  %g2, %g1, %g1
     744:	c2 27 bf e8 	st  %g1, [ %fp + -24 ]
     748:	c2 07 bf ec 	ld  [ %fp + -20 ], %g1
     74c:	82 00 40 01 	add  %g1, %g1, %g1
     750:	c2 27 bf ec 	st  %g1, [ %fp + -20 ]
     754:	c4 07 bf e8 	ld  [ %fp + -24 ], %g2
     758:	c2 07 a0 48 	ld  [ %fp + 0x48 ], %g1
     75c:	80 a0 80 01 	cmp  %g2, %g1
     760:	06 bf ff ee 	bl  718 <realfft_split+0x528>
     764:	01 00 00 00 	nop 
     768:	82 10 20 02 	mov  2, %g1	! 2 <_start+0x2>
     76c:	c2 27 bf f8 	st  %g1, [ %fp + -8 ]
     770:	10 80 01 1c 	b  be0 <realfft_split+0x9f0>
     774:	01 00 00 00 	nop 
     778:	c2 07 bf f8 	ld  [ %fp + -8 ], %g1
     77c:	84 00 7f ff 	add  %g1, -1, %g2
     780:	c2 07 bf d0 	ld  [ %fp + -48 ], %g1
     784:	82 58 80 01 	smul  %g2, %g1, %g1
     788:	c2 27 bf bc 	st  %g1, [ %fp + -68 ]
     78c:	c4 07 a0 4c 	ld  [ %fp + 0x4c ], %g2
     790:	c2 07 bf bc 	ld  [ %fp + -68 ], %g1
     794:	83 28 60 02 	sll  %g1, 2, %g1
     798:	d1 00 80 01 	ld  [ %g2 + %g1 ], %f8
     79c:	d1 27 bf b8 	st  %f8, [ %fp + -72 ]
     7a0:	c2 07 a0 4c 	ld  [ %fp + 0x4c ], %g1
     7a4:	84 00 60 08 	add  %g1, 8, %g2
     7a8:	c2 07 bf bc 	ld  [ %fp + -68 ], %g1
     7ac:	83 28 60 02 	sll  %g1, 2, %g1
     7b0:	d1 00 80 01 	ld  [ %g2 + %g1 ], %f8
     7b4:	d1 27 bf b4 	st  %f8, [ %fp + -76 ]
     7b8:	c2 07 a0 4c 	ld  [ %fp + 0x4c ], %g1
     7bc:	84 00 60 10 	add  %g1, 0x10, %g2
     7c0:	c2 07 bf bc 	ld  [ %fp + -68 ], %g1
     7c4:	83 28 60 02 	sll  %g1, 2, %g1
     7c8:	d1 00 80 01 	ld  [ %g2 + %g1 ], %f8
     7cc:	d1 27 bf b0 	st  %f8, [ %fp + -80 ]
     7d0:	c2 07 a0 4c 	ld  [ %fp + 0x4c ], %g1
     7d4:	84 00 60 18 	add  %g1, 0x18, %g2
     7d8:	c2 07 bf bc 	ld  [ %fp + -68 ], %g1
     7dc:	83 28 60 02 	sll  %g1, 2, %g1
     7e0:	d1 00 80 01 	ld  [ %g2 + %g1 ], %f8
     7e4:	d1 27 bf ac 	st  %f8, [ %fp + -84 ]
     7e8:	c0 27 bf fc 	clr  [ %fp + -4 ]
     7ec:	c2 07 bf e4 	ld  [ %fp + -28 ], %g1
     7f0:	82 00 40 01 	add  %g1, %g1, %g1
     7f4:	c2 27 bf ec 	st  %g1, [ %fp + -20 ]
     7f8:	10 80 00 e3 	b  b84 <realfft_split+0x994>
     7fc:	01 00 00 00 	nop 
     800:	c4 07 bf fc 	ld  [ %fp + -4 ], %g2
     804:	c2 07 bf f8 	ld  [ %fp + -8 ], %g1
     808:	82 00 80 01 	add  %g2, %g1, %g1
     80c:	82 00 7f ff 	add  %g1, -1, %g1
     810:	c2 27 bf e8 	st  %g1, [ %fp + -24 ]
     814:	c4 07 bf e8 	ld  [ %fp + -24 ], %g2
     818:	c2 07 bf dc 	ld  [ %fp + -36 ], %g1
     81c:	82 00 80 01 	add  %g2, %g1, %g1
     820:	c2 27 bf cc 	st  %g1, [ %fp + -52 ]
     824:	c4 07 bf cc 	ld  [ %fp + -52 ], %g2
     828:	c2 07 bf dc 	ld  [ %fp + -36 ], %g1
     82c:	82 00 80 01 	add  %g2, %g1, %g1
     830:	c2 27 bf c8 	st  %g1, [ %fp + -56 ]
     834:	c4 07 bf c8 	ld  [ %fp + -56 ], %g2
     838:	c2 07 bf dc 	ld  [ %fp + -36 ], %g1
     83c:	82 00 80 01 	add  %g2, %g1, %g1
     840:	c2 27 bf c4 	st  %g1, [ %fp + -60 ]
     844:	c4 07 bf fc 	ld  [ %fp + -4 ], %g2
     848:	c2 07 bf dc 	ld  [ %fp + -36 ], %g1
     84c:	84 00 80 01 	add  %g2, %g1, %g2
     850:	c2 07 bf f8 	ld  [ %fp + -8 ], %g1
     854:	82 20 80 01 	sub  %g2, %g1, %g1
     858:	82 00 60 01 	inc  %g1
     85c:	c2 27 bf a8 	st  %g1, [ %fp + -88 ]
     860:	c4 07 bf a8 	ld  [ %fp + -88 ], %g2
     864:	c2 07 bf dc 	ld  [ %fp + -36 ], %g1
     868:	82 00 80 01 	add  %g2, %g1, %g1
     86c:	c2 27 bf a4 	st  %g1, [ %fp + -92 ]
     870:	c4 07 bf a4 	ld  [ %fp + -92 ], %g2
     874:	c2 07 bf dc 	ld  [ %fp + -36 ], %g1
     878:	82 00 80 01 	add  %g2, %g1, %g1
     87c:	c2 27 bf a0 	st  %g1, [ %fp + -96 ]
     880:	c4 07 bf a0 	ld  [ %fp + -96 ], %g2
     884:	c2 07 bf dc 	ld  [ %fp + -36 ], %g1
     888:	82 00 80 01 	add  %g2, %g1, %g1
     88c:	c2 27 bf 9c 	st  %g1, [ %fp + -100 ]
     890:	c2 07 bf c8 	ld  [ %fp + -56 ], %g1
     894:	83 28 60 02 	sll  %g1, 2, %g1
     898:	c4 07 a0 44 	ld  [ %fp + 0x44 ], %g2
     89c:	82 00 80 01 	add  %g2, %g1, %g1
     8a0:	d3 00 40 00 	ld  [ %g1 ], %f9
     8a4:	d1 07 bf b8 	ld  [ %fp + -72 ], %f8
     8a8:	93 a2 49 28 	fmuls  %f9, %f8, %f9
     8ac:	c2 07 bf a0 	ld  [ %fp + -96 ], %g1
     8b0:	83 28 60 02 	sll  %g1, 2, %g1
     8b4:	c4 07 a0 44 	ld  [ %fp + 0x44 ], %g2
     8b8:	82 00 80 01 	add  %g2, %g1, %g1
     8bc:	d5 00 40 00 	ld  [ %g1 ], %f10
     8c0:	d1 07 bf b4 	ld  [ %fp + -76 ], %f8
     8c4:	91 a2 89 28 	fmuls  %f10, %f8, %f8
     8c8:	91 a2 48 28 	fadds  %f9, %f8, %f8
     8cc:	d1 27 bf d8 	st  %f8, [ %fp + -40 ]
     8d0:	c2 07 bf a0 	ld  [ %fp + -96 ], %g1
     8d4:	83 28 60 02 	sll  %g1, 2, %g1
     8d8:	c4 07 a0 44 	ld  [ %fp + 0x44 ], %g2
     8dc:	82 00 80 01 	add  %g2, %g1, %g1
     8e0:	d3 00 40 00 	ld  [ %g1 ], %f9
     8e4:	d1 07 bf b8 	ld  [ %fp + -72 ], %f8
     8e8:	93 a2 49 28 	fmuls  %f9, %f8, %f9
     8ec:	c2 07 bf c8 	ld  [ %fp + -56 ], %g1
     8f0:	83 28 60 02 	sll  %g1, 2, %g1
     8f4:	c4 07 a0 44 	ld  [ %fp + 0x44 ], %g2
     8f8:	82 00 80 01 	add  %g2, %g1, %g1
     8fc:	d5 00 40 00 	ld  [ %g1 ], %f10
     900:	d1 07 bf b4 	ld  [ %fp + -76 ], %f8
     904:	91 a2 89 28 	fmuls  %f10, %f8, %f8
     908:	91 a2 48 a8 	fsubs  %f9, %f8, %f8
     90c:	d1 27 bf c0 	st  %f8, [ %fp + -64 ]
     910:	c2 07 bf c4 	ld  [ %fp + -60 ], %g1
     914:	83 28 60 02 	sll  %g1, 2, %g1
     918:	c4 07 a0 44 	ld  [ %fp + 0x44 ], %g2
     91c:	82 00 80 01 	add  %g2, %g1, %g1
     920:	d3 00 40 00 	ld  [ %g1 ], %f9
     924:	d1 07 bf b0 	ld  [ %fp + -80 ], %f8
     928:	93 a2 49 28 	fmuls  %f9, %f8, %f9
     92c:	c2 07 bf 9c 	ld  [ %fp + -100 ], %g1
     930:	83 28 60 02 	sll  %g1, 2, %g1
     934:	c4 07 a0 44 	ld  [ %fp + 0x44 ], %g2
     938:	82 00 80 01 	add  %g2, %g1, %g1
     93c:	d5 00 40 00 	ld  [ %g1 ], %f10
     940:	d1 07 bf ac 	ld  [ %fp + -84 ], %f8
     944:	91 a2 89 28 	fmuls  %f10, %f8, %f8
     948:	91 a2 48 28 	fadds  %f9, %f8, %f8
     94c:	d1 27 bf 98 	st  %f8, [ %fp + -104 ]
     950:	c2 07 bf 9c 	ld  [ %fp + -100 ], %g1
     954:	83 28 60 02 	sll  %g1, 2, %g1
     958:	c4 07 a0 44 	ld  [ %fp + 0x44 ], %g2
     95c:	82 00 80 01 	add  %g2, %g1, %g1
     960:	d3 00 40 00 	ld  [ %g1 ], %f9
     964:	d1 07 bf b0 	ld  [ %fp + -80 ], %f8
     968:	93 a2 49 28 	fmuls  %f9, %f8, %f9
     96c:	c2 07 bf c4 	ld  [ %fp + -60 ], %g1
     970:	83 28 60 02 	sll  %g1, 2, %g1
     974:	c4 07 a0 44 	ld  [ %fp + 0x44 ], %g2
     978:	82 00 80 01 	add  %g2, %g1, %g1
     97c:	d5 00 40 00 	ld  [ %g1 ], %f10
     980:	d1 07 bf ac 	ld  [ %fp + -84 ], %f8
     984:	91 a2 89 28 	fmuls  %f10, %f8, %f8
     988:	91 a2 48 a8 	fsubs  %f9, %f8, %f8
     98c:	d1 27 bf 94 	st  %f8, [ %fp + -108 ]
     990:	d3 07 bf d8 	ld  [ %fp + -40 ], %f9
     994:	d1 07 bf 98 	ld  [ %fp + -104 ], %f8
     998:	91 a2 48 28 	fadds  %f9, %f8, %f8
     99c:	d1 27 bf 90 	st  %f8, [ %fp + -112 ]
     9a0:	d3 07 bf c0 	ld  [ %fp + -64 ], %f9
     9a4:	d1 07 bf 94 	ld  [ %fp + -108 ], %f8
     9a8:	91 a2 48 28 	fadds  %f9, %f8, %f8
     9ac:	d1 27 bf 8c 	st  %f8, [ %fp + -116 ]
     9b0:	d3 07 bf d8 	ld  [ %fp + -40 ], %f9
     9b4:	d1 07 bf 98 	ld  [ %fp + -104 ], %f8
     9b8:	91 a2 48 a8 	fsubs  %f9, %f8, %f8
     9bc:	d1 27 bf 98 	st  %f8, [ %fp + -104 ]
     9c0:	d3 07 bf c0 	ld  [ %fp + -64 ], %f9
     9c4:	d1 07 bf 94 	ld  [ %fp + -108 ], %f8
     9c8:	91 a2 48 a8 	fsubs  %f9, %f8, %f8
     9cc:	d1 27 bf 94 	st  %f8, [ %fp + -108 ]
     9d0:	c2 07 bf a4 	ld  [ %fp + -92 ], %g1
     9d4:	83 28 60 02 	sll  %g1, 2, %g1
     9d8:	c4 07 a0 44 	ld  [ %fp + 0x44 ], %g2
     9dc:	82 00 80 01 	add  %g2, %g1, %g1
     9e0:	d3 00 40 00 	ld  [ %g1 ], %f9
     9e4:	d1 07 bf 8c 	ld  [ %fp + -116 ], %f8
     9e8:	91 a2 48 28 	fadds  %f9, %f8, %f8
     9ec:	d1 27 bf c0 	st  %f8, [ %fp + -64 ]
     9f0:	c2 07 bf c8 	ld  [ %fp + -56 ], %g1
     9f4:	83 28 60 02 	sll  %g1, 2, %g1
     9f8:	c4 07 a0 44 	ld  [ %fp + 0x44 ], %g2
     9fc:	82 00 80 01 	add  %g2, %g1, %g1
     a00:	c4 07 bf a4 	ld  [ %fp + -92 ], %g2
     a04:	85 28 a0 02 	sll  %g2, 2, %g2
     a08:	c6 07 a0 44 	ld  [ %fp + 0x44 ], %g3
     a0c:	84 00 c0 02 	add  %g3, %g2, %g2
     a10:	d1 00 80 00 	ld  [ %g2 ], %f8
     a14:	d3 07 bf 8c 	ld  [ %fp + -116 ], %f9
     a18:	91 a2 48 a8 	fsubs  %f9, %f8, %f8
     a1c:	d1 20 40 00 	st  %f8, [ %g1 ]
     a20:	c2 07 bf 9c 	ld  [ %fp + -100 ], %g1
     a24:	83 28 60 02 	sll  %g1, 2, %g1
     a28:	c4 07 a0 44 	ld  [ %fp + 0x44 ], %g2
     a2c:	82 00 80 01 	add  %g2, %g1, %g1
     a30:	d1 07 bf c0 	ld  [ %fp + -64 ], %f8
     a34:	d1 20 40 00 	st  %f8, [ %g1 ]
     a38:	c2 07 bf cc 	ld  [ %fp + -52 ], %g1
     a3c:	83 28 60 02 	sll  %g1, 2, %g1
     a40:	c4 07 a0 44 	ld  [ %fp + 0x44 ], %g2
     a44:	82 00 80 01 	add  %g2, %g1, %g1
     a48:	d3 00 40 00 	ld  [ %g1 ], %f9
     a4c:	d1 07 bf 98 	ld  [ %fp + -104 ], %f8
     a50:	91 a2 48 a8 	fsubs  %f9, %f8, %f8
     a54:	d1 27 bf c0 	st  %f8, [ %fp + -64 ]
     a58:	c2 07 bf a0 	ld  [ %fp + -96 ], %g1
     a5c:	83 28 60 02 	sll  %g1, 2, %g1
     a60:	c4 07 a0 44 	ld  [ %fp + 0x44 ], %g2
     a64:	82 00 80 01 	add  %g2, %g1, %g1
     a68:	c4 07 bf cc 	ld  [ %fp + -52 ], %g2
     a6c:	85 28 a0 02 	sll  %g2, 2, %g2
     a70:	c6 07 a0 44 	ld  [ %fp + 0x44 ], %g3
     a74:	84 00 c0 02 	add  %g3, %g2, %g2
     a78:	d1 00 80 00 	ld  [ %g2 ], %f8
     a7c:	93 a0 00 a8 	fnegs  %f8, %f9
     a80:	d1 07 bf 98 	ld  [ %fp + -104 ], %f8
     a84:	91 a2 48 a8 	fsubs  %f9, %f8, %f8
     a88:	d1 20 40 00 	st  %f8, [ %g1 ]
     a8c:	c2 07 bf c4 	ld  [ %fp + -60 ], %g1
     a90:	83 28 60 02 	sll  %g1, 2, %g1
     a94:	c4 07 a0 44 	ld  [ %fp + 0x44 ], %g2
     a98:	82 00 80 01 	add  %g2, %g1, %g1
     a9c:	d1 07 bf c0 	ld  [ %fp + -64 ], %f8
     aa0:	d1 20 40 00 	st  %f8, [ %g1 ]
     aa4:	c2 07 bf e8 	ld  [ %fp + -24 ], %g1
     aa8:	83 28 60 02 	sll  %g1, 2, %g1
     aac:	c4 07 a0 44 	ld  [ %fp + 0x44 ], %g2
     ab0:	82 00 80 01 	add  %g2, %g1, %g1
     ab4:	d3 00 40 00 	ld  [ %g1 ], %f9
     ab8:	d1 07 bf 90 	ld  [ %fp + -112 ], %f8
     abc:	91 a2 48 28 	fadds  %f9, %f8, %f8
     ac0:	d1 27 bf d8 	st  %f8, [ %fp + -40 ]
     ac4:	c2 07 bf a4 	ld  [ %fp + -92 ], %g1
     ac8:	83 28 60 02 	sll  %g1, 2, %g1
     acc:	c4 07 a0 44 	ld  [ %fp + 0x44 ], %g2
     ad0:	82 00 80 01 	add  %g2, %g1, %g1
     ad4:	c4 07 bf e8 	ld  [ %fp + -24 ], %g2
     ad8:	85 28 a0 02 	sll  %g2, 2, %g2
     adc:	c6 07 a0 44 	ld  [ %fp + 0x44 ], %g3
     ae0:	84 00 c0 02 	add  %g3, %g2, %g2
     ae4:	d3 00 80 00 	ld  [ %g2 ], %f9
     ae8:	d1 07 bf 90 	ld  [ %fp + -112 ], %f8
     aec:	91 a2 48 a8 	fsubs  %f9, %f8, %f8
     af0:	d1 20 40 00 	st  %f8, [ %g1 ]
     af4:	c2 07 bf e8 	ld  [ %fp + -24 ], %g1
     af8:	83 28 60 02 	sll  %g1, 2, %g1
     afc:	c4 07 a0 44 	ld  [ %fp + 0x44 ], %g2
     b00:	82 00 80 01 	add  %g2, %g1, %g1
     b04:	d1 07 bf d8 	ld  [ %fp + -40 ], %f8
     b08:	d1 20 40 00 	st  %f8, [ %g1 ]
     b0c:	c2 07 bf a8 	ld  [ %fp + -88 ], %g1
     b10:	83 28 60 02 	sll  %g1, 2, %g1
     b14:	c4 07 a0 44 	ld  [ %fp + 0x44 ], %g2
     b18:	82 00 80 01 	add  %g2, %g1, %g1
     b1c:	d3 00 40 00 	ld  [ %g1 ], %f9
     b20:	d1 07 bf 94 	ld  [ %fp + -108 ], %f8
     b24:	91 a2 48 28 	fadds  %f9, %f8, %f8
     b28:	d1 27 bf d8 	st  %f8, [ %fp + -40 ]
     b2c:	c2 07 bf a8 	ld  [ %fp + -88 ], %g1
     b30:	83 28 60 02 	sll  %g1, 2, %g1
     b34:	c4 07 a0 44 	ld  [ %fp + 0x44 ], %g2
     b38:	82 00 80 01 	add  %g2, %g1, %g1
     b3c:	c4 07 bf a8 	ld  [ %fp + -88 ], %g2
     b40:	85 28 a0 02 	sll  %g2, 2, %g2
     b44:	c6 07 a0 44 	ld  [ %fp + 0x44 ], %g3
     b48:	84 00 c0 02 	add  %g3, %g2, %g2
     b4c:	d3 00 80 00 	ld  [ %g2 ], %f9
     b50:	d1 07 bf 94 	ld  [ %fp + -108 ], %f8
     b54:	91 a2 48 a8 	fsubs  %f9, %f8, %f8
     b58:	d1 20 40 00 	st  %f8, [ %g1 ]
     b5c:	c2 07 bf cc 	ld  [ %fp + -52 ], %g1
     b60:	83 28 60 02 	sll  %g1, 2, %g1
     b64:	c4 07 a0 44 	ld  [ %fp + 0x44 ], %g2
     b68:	82 00 80 01 	add  %g2, %g1, %g1
     b6c:	d1 07 bf d8 	ld  [ %fp + -40 ], %f8
     b70:	d1 20 40 00 	st  %f8, [ %g1 ]
     b74:	c4 07 bf fc 	ld  [ %fp + -4 ], %g2
     b78:	c2 07 bf ec 	ld  [ %fp + -20 ], %g1
     b7c:	82 00 80 01 	add  %g2, %g1, %g1
     b80:	c2 27 bf fc 	st  %g1, [ %fp + -4 ]
     b84:	c4 07 bf fc 	ld  [ %fp + -4 ], %g2
     b88:	c2 07 a0 48 	ld  [ %fp + 0x48 ], %g1
     b8c:	80 a0 80 01 	cmp  %g2, %g1
     b90:	06 bf ff 1c 	bl  800 <realfft_split+0x610>
     b94:	01 00 00 00 	nop 
     b98:	c2 07 bf ec 	ld  [ %fp + -20 ], %g1
     b9c:	82 00 40 01 	add  %g1, %g1, %g1
     ba0:	c2 27 bf ec 	st  %g1, [ %fp + -20 ]
     ba4:	c4 07 bf ec 	ld  [ %fp + -20 ], %g2
     ba8:	c2 07 bf e4 	ld  [ %fp + -28 ], %g1
     bac:	82 20 80 01 	sub  %g2, %g1, %g1
     bb0:	c2 27 bf fc 	st  %g1, [ %fp + -4 ]
     bb4:	c2 07 bf ec 	ld  [ %fp + -20 ], %g1
     bb8:	82 00 40 01 	add  %g1, %g1, %g1
     bbc:	c2 27 bf ec 	st  %g1, [ %fp + -20 ]
     bc0:	c4 07 bf fc 	ld  [ %fp + -4 ], %g2
     bc4:	c2 07 a0 48 	ld  [ %fp + 0x48 ], %g1
     bc8:	80 a0 80 01 	cmp  %g2, %g1
     bcc:	06 bf ff ee 	bl  b84 <realfft_split+0x994>
     bd0:	01 00 00 00 	nop 
     bd4:	c2 07 bf f8 	ld  [ %fp + -8 ], %g1
     bd8:	82 00 60 01 	inc  %g1
     bdc:	c2 27 bf f8 	st  %g1, [ %fp + -8 ]
     be0:	c4 07 bf f8 	ld  [ %fp + -8 ], %g2
     be4:	c2 07 bf d4 	ld  [ %fp + -44 ], %g1
     be8:	80 a0 80 01 	cmp  %g2, %g1
     bec:	04 bf fe e3 	ble  778 <realfft_split+0x588>
     bf0:	01 00 00 00 	nop 
     bf4:	c2 07 bf f4 	ld  [ %fp + -12 ], %g1
     bf8:	83 38 60 01 	sra  %g1, 1, %g1
     bfc:	c2 27 bf f4 	st  %g1, [ %fp + -12 ]
     c00:	c2 07 bf f4 	ld  [ %fp + -12 ], %g1
     c04:	80 a0 60 02 	cmp  %g1, 2
     c08:	14 bf fe 08 	bg  428 <realfft_split+0x238>
     c0c:	01 00 00 00 	nop 
     c10:	81 e8 00 00 	restore 
     c14:	81 c3 e0 08 	retl 
     c18:	01 00 00 00 	nop 

00000c1c <main>:
     c1c:	9d e3 be e8 	save  %sp, -280, %sp
     c20:	82 10 20 10 	mov  0x10, %g1
     c24:	c2 27 bf f4 	st  %g1, [ %fp + -12 ]
     c28:	82 07 bf d4 	add  %fp, -44, %g1
     c2c:	90 10 00 01 	mov  %g1, %o0
     c30:	92 10 20 10 	mov  0x10, %o1
     c34:	7f ff fd 06 	call  4c <fft_compute_split_twiddle>
     c38:	01 00 00 00 	nop 
     c3c:	03 10 00 00 	sethi  %hi(0x40000000), %g1
     c40:	82 10 60 10 	or  %g1, 0x10, %g1	! 40000010 <__sparc_get_pc_thunk.l7+0x3fff9018>
     c44:	86 07 bf 94 	add  %fp, -108, %g3
     c48:	84 10 00 01 	mov  %g1, %g2
     c4c:	82 10 20 40 	mov  0x40, %g1
     c50:	90 10 00 03 	mov  %g3, %o0
     c54:	92 10 00 02 	mov  %g2, %o1
     c58:	94 10 00 01 	mov  %g1, %o2
     c5c:	40 00 06 f0 	call  281c <__GI_memcpy>
     c60:	01 00 00 00 	nop 
     c64:	84 07 bf 94 	add  %fp, -108, %g2
     c68:	82 07 bf d4 	add  %fp, -44, %g1
     c6c:	90 10 00 02 	mov  %g2, %o0
     c70:	92 10 20 10 	mov  0x10, %o1
     c74:	94 10 00 01 	mov  %g1, %o2
     c78:	7f ff fd 5e 	call  1f0 <realfft_split>
     c7c:	01 00 00 00 	nop 
     c80:	c0 27 bf fc 	clr  [ %fp + -4 ]
     c84:	c0 27 bf f8 	clr  [ %fp + -8 ]
     c88:	d1 07 bf 94 	ld  [ %fp + -108 ], %f8
     c8c:	d1 27 bf 4c 	st  %f8, [ %fp + -180 ]
     c90:	03 10 00 00 	sethi  %hi(0x40000000), %g1
     c94:	82 10 60 50 	or  %g1, 0x50, %g1	! 40000050 <__sparc_get_pc_thunk.l7+0x3fff9058>
     c98:	d1 00 40 00 	ld  [ %g1 ], %f8
     c9c:	d1 27 bf 50 	st  %f8, [ %fp + -176 ]
     ca0:	82 10 20 02 	mov  2, %g1
     ca4:	c2 27 bf fc 	st  %g1, [ %fp + -4 ]
     ca8:	82 10 20 01 	mov  1, %g1
     cac:	c2 27 bf f8 	st  %g1, [ %fp + -8 ]
     cb0:	10 80 00 1b 	b  d1c <main+0x100>
     cb4:	01 00 00 00 	nop 
     cb8:	c2 07 bf f8 	ld  [ %fp + -8 ], %g1
     cbc:	83 28 60 02 	sll  %g1, 2, %g1
     cc0:	82 07 80 01 	add  %fp, %g1, %g1
     cc4:	d1 00 7f 94 	ld  [ %g1 + -108 ], %f8
     cc8:	c2 07 bf fc 	ld  [ %fp + -4 ], %g1
     ccc:	83 28 60 02 	sll  %g1, 2, %g1
     cd0:	82 07 80 01 	add  %fp, %g1, %g1
     cd4:	d1 20 7f 4c 	st  %f8, [ %g1 + -180 ]
     cd8:	c2 07 bf fc 	ld  [ %fp + -4 ], %g1
     cdc:	82 00 60 01 	inc  %g1
     ce0:	c6 07 bf f4 	ld  [ %fp + -12 ], %g3
     ce4:	c4 07 bf f8 	ld  [ %fp + -8 ], %g2
     ce8:	84 20 c0 02 	sub  %g3, %g2, %g2
     cec:	85 28 a0 02 	sll  %g2, 2, %g2
     cf0:	84 07 80 02 	add  %fp, %g2, %g2
     cf4:	d1 00 bf 94 	ld  [ %g2 + -108 ], %f8
     cf8:	83 28 60 02 	sll  %g1, 2, %g1
     cfc:	82 07 80 01 	add  %fp, %g1, %g1
     d00:	d1 20 7f 4c 	st  %f8, [ %g1 + -180 ]
     d04:	c2 07 bf fc 	ld  [ %fp + -4 ], %g1
     d08:	82 00 60 02 	add  %g1, 2, %g1
     d0c:	c2 27 bf fc 	st  %g1, [ %fp + -4 ]
     d10:	c2 07 bf f8 	ld  [ %fp + -8 ], %g1
     d14:	82 00 60 01 	inc  %g1
     d18:	c2 27 bf f8 	st  %g1, [ %fp + -8 ]
     d1c:	c4 07 bf fc 	ld  [ %fp + -4 ], %g2
     d20:	c2 07 bf f4 	ld  [ %fp + -12 ], %g1
     d24:	80 a0 80 01 	cmp  %g2, %g1
     d28:	04 bf ff e4 	ble  cb8 <main+0x9c>
     d2c:	01 00 00 00 	nop 
     d30:	82 07 bf 4c 	add  %fp, -180, %g1
     d34:	b0 10 00 01 	mov  %g1, %i0
     d38:	81 e8 00 00 	restore 
     d3c:	81 c3 e0 08 	retl 
     d40:	01 00 00 00 	nop 

00000d44 <__GI_cos>:
     d44:	9d e3 bf 88 	save  %sp, -120, %sp
     d48:	03 20 00 00 	sethi  %hi(0x80000000), %g1
     d4c:	f0 3f bf e8 	std  %i0, [ %fp + -24 ]
     d50:	84 2e 00 01 	andn  %i0, %g1, %g2
     d54:	2f 0f ff fd 	sethi  %hi(0x3ffff400), %l7
     d58:	40 00 18 a8 	call  6ff8 <__sparc_get_pc_thunk.l7>
     d5c:	ae 05 e1 d0 	add  %l7, 0x1d0, %l7	! 3ffff5d0 <__sparc_get_pc_thunk.l7+0x3fff85d8>
     d60:	03 0f fa 48 	sethi  %hi(0x3fe92000), %g1
     d64:	82 10 61 fb 	or  %g1, 0x1fb, %g1	! 3fe921fb <__sparc_get_pc_thunk.l7+0x3fe8b203>
     d68:	80 a0 80 01 	cmp  %g2, %g1
     d6c:	14 80 00 09 	bg  d90 <__GI_cos+0x4c>
     d70:	c1 1f bf e8 	ldd  [ %fp + -24 ], %f0
     d74:	03 00 00 00 	sethi  %hi(0), %g1
     d78:	90 10 00 18 	mov  %i0, %o0
     d7c:	82 18 7f 08 	xor  %g1, -248, %g1
     d80:	92 10 00 19 	mov  %i1, %o1
     d84:	82 05 c0 01 	add  %l7, %g1, %g1
     d88:	10 80 00 16 	b  de0 <__GI_cos+0x9c>
     d8c:	d4 18 40 00 	ldd  [ %g1 ], %o2
     d90:	03 1f fb ff 	sethi  %hi(0x7feffc00), %g1
     d94:	82 10 63 ff 	or  %g1, 0x3ff, %g1	! 7fefffff <_GLOBAL_OFFSET_TABLE_+0x3feffcd7>
     d98:	80 a0 80 01 	cmp  %g2, %g1
     d9c:	24 80 00 05 	ble,a   db0 <__GI_cos+0x6c>
     da0:	c1 3f bf e8 	std  %f0, [ %fp + -24 ]
     da4:	81 a0 08 c0 	fsubd  %f0, %f0, %f0
     da8:	81 c7 e0 08 	ret 
     dac:	81 e8 00 00 	restore 
     db0:	94 07 bf f0 	add  %fp, -16, %o2
     db4:	40 00 00 5e 	call  f2c <__ieee754_rem_pio2>
     db8:	d0 1f bf e8 	ldd  [ %fp + -24 ], %o0
     dbc:	90 0a 20 03 	and  %o0, 3, %o0
     dc0:	80 a2 20 01 	cmp  %o0, 1
     dc4:	02 80 00 0b 	be  df0 <__GI_cos+0xac>
     dc8:	80 a2 20 02 	cmp  %o0, 2
     dcc:	02 80 00 10 	be  e0c <__GI_cos+0xc8>
     dd0:	80 a2 20 00 	cmp  %o0, 0
     dd4:	d4 1f bf f8 	ldd  [ %fp + -8 ], %o2
     dd8:	12 80 00 13 	bne  e24 <__GI_cos+0xe0>
     ddc:	d0 1f bf f0 	ldd  [ %fp + -16 ], %o0
     de0:	40 00 01 4c 	call  1310 <__kernel_cos>
     de4:	01 00 00 00 	nop 
     de8:	81 c7 e0 08 	ret 
     dec:	81 e8 00 00 	restore 
     df0:	d0 1f bf f0 	ldd  [ %fp + -16 ], %o0
     df4:	d4 1f bf f8 	ldd  [ %fp + -8 ], %o2
     df8:	40 00 03 cb 	call  1d24 <__kernel_sin>
     dfc:	98 10 20 01 	mov  1, %o4
     e00:	81 a0 00 a0 	fnegs  %f0, %f0
     e04:	81 c7 e0 08 	ret 
     e08:	81 e8 00 00 	restore 
     e0c:	d0 1f bf f0 	ldd  [ %fp + -16 ], %o0
     e10:	40 00 01 40 	call  1310 <__kernel_cos>
     e14:	d4 1f bf f8 	ldd  [ %fp + -8 ], %o2
     e18:	81 a0 00 a0 	fnegs  %f0, %f0
     e1c:	81 c7 e0 08 	ret 
     e20:	81 e8 00 00 	restore 
     e24:	40 00 03 c0 	call  1d24 <__kernel_sin>
     e28:	98 10 20 01 	mov  1, %o4
     e2c:	81 c7 e0 08 	ret 
     e30:	81 e8 00 00 	restore 

00000e34 <__GI_sin>:
     e34:	9d e3 bf 88 	save  %sp, -120, %sp
     e38:	03 20 00 00 	sethi  %hi(0x80000000), %g1
     e3c:	f0 3f bf e8 	std  %i0, [ %fp + -24 ]
     e40:	84 2e 00 01 	andn  %i0, %g1, %g2
     e44:	2f 0f ff fd 	sethi  %hi(0x3ffff400), %l7
     e48:	40 00 18 6c 	call  6ff8 <__sparc_get_pc_thunk.l7>
     e4c:	ae 05 e0 e0 	add  %l7, 0xe0, %l7	! 3ffff4e0 <__sparc_get_pc_thunk.l7+0x3fff84e8>
     e50:	03 0f fa 48 	sethi  %hi(0x3fe92000), %g1
     e54:	82 10 61 fb 	or  %g1, 0x1fb, %g1	! 3fe921fb <__sparc_get_pc_thunk.l7+0x3fe8b203>
     e58:	80 a0 80 01 	cmp  %g2, %g1
     e5c:	14 80 00 0a 	bg  e84 <__GI_sin+0x50>
     e60:	c1 1f bf e8 	ldd  [ %fp + -24 ], %f0
     e64:	03 00 00 00 	sethi  %hi(0), %g1
     e68:	90 10 00 18 	mov  %i0, %o0
     e6c:	82 18 7f 08 	xor  %g1, -248, %g1
     e70:	92 10 00 19 	mov  %i1, %o1
     e74:	82 05 c0 01 	add  %l7, %g1, %g1
     e78:	98 10 20 00 	clr  %o4
     e7c:	10 80 00 17 	b  ed8 <__GI_sin+0xa4>
     e80:	d4 18 40 00 	ldd  [ %g1 ], %o2
     e84:	03 1f fb ff 	sethi  %hi(0x7feffc00), %g1
     e88:	82 10 63 ff 	or  %g1, 0x3ff, %g1	! 7fefffff <_GLOBAL_OFFSET_TABLE_+0x3feffcd7>
     e8c:	80 a0 80 01 	cmp  %g2, %g1
     e90:	24 80 00 05 	ble,a   ea4 <__GI_sin+0x70>
     e94:	c1 3f bf e8 	std  %f0, [ %fp + -24 ]
     e98:	81 a0 08 c0 	fsubd  %f0, %f0, %f0
     e9c:	81 c7 e0 08 	ret 
     ea0:	81 e8 00 00 	restore 
     ea4:	94 07 bf f0 	add  %fp, -16, %o2
     ea8:	40 00 00 21 	call  f2c <__ieee754_rem_pio2>
     eac:	d0 1f bf e8 	ldd  [ %fp + -24 ], %o0
     eb0:	90 0a 20 03 	and  %o0, 3, %o0
     eb4:	80 a2 20 01 	cmp  %o0, 1
     eb8:	02 80 00 0c 	be  ee8 <__GI_sin+0xb4>
     ebc:	80 a2 20 02 	cmp  %o0, 2
     ec0:	02 80 00 0f 	be  efc <__GI_sin+0xc8>
     ec4:	80 a2 20 00 	cmp  %o0, 0
     ec8:	d4 1f bf f8 	ldd  [ %fp + -8 ], %o2
     ecc:	12 80 00 13 	bne  f18 <__GI_sin+0xe4>
     ed0:	d0 1f bf f0 	ldd  [ %fp + -16 ], %o0
     ed4:	98 10 20 01 	mov  1, %o4
     ed8:	40 00 03 93 	call  1d24 <__kernel_sin>
     edc:	01 00 00 00 	nop 
     ee0:	81 c7 e0 08 	ret 
     ee4:	81 e8 00 00 	restore 
     ee8:	d0 1f bf f0 	ldd  [ %fp + -16 ], %o0
     eec:	40 00 01 09 	call  1310 <__kernel_cos>
     ef0:	d4 1f bf f8 	ldd  [ %fp + -8 ], %o2
     ef4:	81 c7 e0 08 	ret 
     ef8:	81 e8 00 00 	restore 
     efc:	d0 1f bf f0 	ldd  [ %fp + -16 ], %o0
     f00:	d4 1f bf f8 	ldd  [ %fp + -8 ], %o2
     f04:	40 00 03 88 	call  1d24 <__kernel_sin>
     f08:	98 10 20 01 	mov  1, %o4
     f0c:	81 a0 00 a0 	fnegs  %f0, %f0
     f10:	81 c7 e0 08 	ret 
     f14:	81 e8 00 00 	restore 
     f18:	40 00 00 fe 	call  1310 <__kernel_cos>
     f1c:	01 00 00 00 	nop 
     f20:	81 a0 00 a0 	fnegs  %f0, %f0
     f24:	81 c7 e0 08 	ret 
     f28:	81 e8 00 00 	restore 

00000f2c <__ieee754_rem_pio2>:
     f2c:	9d e3 bf 78 	save  %sp, -136, %sp
     f30:	f0 3f bf e0 	std  %i0, [ %fp + -32 ]
     f34:	2f 0f ff fc 	sethi  %hi(0x3ffff000), %l7
     f38:	40 00 18 30 	call  6ff8 <__sparc_get_pc_thunk.l7>
     f3c:	ae 05 e3 f0 	add  %l7, 0x3f0, %l7	! 3ffff3f0 <__sparc_get_pc_thunk.l7+0x3fff83f8>
     f40:	39 20 00 00 	sethi  %hi(0x80000000), %i4
     f44:	09 0f fa 48 	sethi  %hi(0x3fe92000), %g4
     f48:	b8 2e 00 1c 	andn  %i0, %i4, %i4
     f4c:	88 11 21 fb 	or  %g4, 0x1fb, %g4
     f50:	80 a7 00 04 	cmp  %i4, %g4
     f54:	14 80 00 09 	bg  f78 <__ieee754_rem_pio2+0x4c>
     f58:	d1 1f bf e0 	ldd  [ %fp + -32 ], %f8
     f5c:	d1 3e 80 00 	std  %f8, [ %i2 ]
     f60:	03 00 00 00 	sethi  %hi(0), %g1
     f64:	82 18 7f 08 	xor  %g1, -248, %g1
     f68:	82 05 c0 01 	add  %l7, %g1, %g1
     f6c:	d1 18 40 00 	ldd  [ %g1 ], %f8
     f70:	10 80 00 b1 	b  1234 <__ieee754_rem_pio2+0x308>
     f74:	d1 3e a0 08 	std  %f8, [ %i2 + 8 ]
     f78:	05 10 00 b6 	sethi  %hi(0x4002d800), %g2
     f7c:	84 10 a1 7b 	or  %g2, 0x17b, %g2	! 4002d97b <_GLOBAL_OFFSET_TABLE_+0x2d653>
     f80:	80 a7 00 02 	cmp  %i4, %g2
     f84:	14 80 00 3a 	bg  106c <__ieee754_rem_pio2+0x140>
     f88:	ba 10 00 18 	mov  %i0, %i5
     f8c:	3b 00 00 00 	sethi  %hi(0), %i5
     f90:	80 a6 20 00 	cmp  %i0, 0
     f94:	ba 1f 7f 10 	xor  %i5, -240, %i5
     f98:	ba 05 c0 1d 	add  %l7, %i5, %i5
     f9c:	04 80 00 1b 	ble  1008 <__ieee754_rem_pio2+0xdc>
     fa0:	d5 1f 40 00 	ldd  [ %i5 ], %f10
     fa4:	03 0f fe 48 	sethi  %hi(0x3ff92000), %g1
     fa8:	82 10 61 fb 	or  %g1, 0x1fb, %g1	! 3ff921fb <__sparc_get_pc_thunk.l7+0x3ff8b203>
     fac:	80 a7 00 01 	cmp  %i4, %g1
     fb0:	02 80 00 06 	be  fc8 <__ieee754_rem_pio2+0x9c>
     fb4:	91 a2 08 ca 	fsubd  %f8, %f10, %f8
     fb8:	03 00 00 00 	sethi  %hi(0), %g1
     fbc:	82 18 7f 18 	xor  %g1, -232, %g1
     fc0:	10 80 00 0a 	b  fe8 <__ieee754_rem_pio2+0xbc>
     fc4:	82 05 c0 01 	add  %l7, %g1, %g1
     fc8:	03 00 00 00 	sethi  %hi(0), %g1
     fcc:	82 18 7f 20 	xor  %g1, -224, %g1
     fd0:	82 05 c0 01 	add  %l7, %g1, %g1
     fd4:	d9 18 40 00 	ldd  [ %g1 ], %f12
     fd8:	03 00 00 00 	sethi  %hi(0), %g1
     fdc:	91 a2 08 cc 	fsubd  %f8, %f12, %f8
     fe0:	82 18 7f 28 	xor  %g1, -216, %g1
     fe4:	82 05 c0 01 	add  %l7, %g1, %g1
     fe8:	d5 18 40 00 	ldd  [ %g1 ], %f10
     fec:	99 a2 08 ca 	fsubd  %f8, %f10, %f12
     ff0:	91 a2 08 cc 	fsubd  %f8, %f12, %f8
     ff4:	d9 3e 80 00 	std  %f12, [ %i2 ]
     ff8:	95 a2 08 ca 	fsubd  %f8, %f10, %f10
     ffc:	d5 3e a0 08 	std  %f10, [ %i2 + 8 ]
    1000:	81 c7 e0 08 	ret 
    1004:	91 e8 20 01 	restore  %g0, 1, %o0
    1008:	03 0f fe 48 	sethi  %hi(0x3ff92000), %g1
    100c:	82 10 61 fb 	or  %g1, 0x1fb, %g1	! 3ff921fb <__sparc_get_pc_thunk.l7+0x3ff8b203>
    1010:	80 a7 00 01 	cmp  %i4, %g1
    1014:	02 80 00 06 	be  102c <__ieee754_rem_pio2+0x100>
    1018:	91 a2 08 4a 	faddd  %f8, %f10, %f8
    101c:	03 00 00 00 	sethi  %hi(0), %g1
    1020:	82 18 7f 18 	xor  %g1, -232, %g1
    1024:	10 80 00 0a 	b  104c <__ieee754_rem_pio2+0x120>
    1028:	82 05 c0 01 	add  %l7, %g1, %g1
    102c:	03 00 00 00 	sethi  %hi(0), %g1
    1030:	82 18 7f 20 	xor  %g1, -224, %g1
    1034:	82 05 c0 01 	add  %l7, %g1, %g1
    1038:	d9 18 40 00 	ldd  [ %g1 ], %f12
    103c:	03 00 00 00 	sethi  %hi(0), %g1
    1040:	91 a2 08 4c 	faddd  %f8, %f12, %f8
    1044:	82 18 7f 28 	xor  %g1, -216, %g1
    1048:	82 05 c0 01 	add  %l7, %g1, %g1
    104c:	d5 18 40 00 	ldd  [ %g1 ], %f10
    1050:	99 a2 08 4a 	faddd  %f8, %f10, %f12
    1054:	91 a2 08 cc 	fsubd  %f8, %f12, %f8
    1058:	d9 3e 80 00 	std  %f12, [ %i2 ]
    105c:	95 a2 08 4a 	faddd  %f8, %f10, %f10
    1060:	d5 3e a0 08 	std  %f10, [ %i2 + 8 ]
    1064:	81 c7 e0 08 	ret 
    1068:	91 e8 3f ff 	restore  %g0, -1, %o0
    106c:	03 10 4e 48 	sethi  %hi(0x41392000), %g1
    1070:	82 10 61 fb 	or  %g1, 0x1fb, %g1	! 413921fb <_GLOBAL_OFFSET_TABLE_+0x1391ed3>
    1074:	80 a7 00 01 	cmp  %i4, %g1
    1078:	14 80 00 68 	bg  1218 <__ieee754_rem_pio2+0x2ec>
    107c:	03 1f fb ff 	sethi  %hi(0x7feffc00), %g1
    1080:	d1 3f bf e0 	std  %f8, [ %fp + -32 ]
    1084:	40 00 03 78 	call  1e64 <__GI_fabs>
    1088:	d0 1f bf e0 	ldd  [ %fp + -32 ], %o0
    108c:	03 00 00 00 	sethi  %hi(0), %g1
    1090:	82 18 7f 30 	xor  %g1, -208, %g1
    1094:	82 05 c0 01 	add  %l7, %g1, %g1
    1098:	d1 18 40 00 	ldd  [ %g1 ], %f8
    109c:	03 00 00 00 	sethi  %hi(0), %g1
    10a0:	91 a0 09 48 	fmuld  %f0, %f8, %f8
    10a4:	82 18 7f 38 	xor  %g1, -200, %g1
    10a8:	82 05 c0 01 	add  %l7, %g1, %g1
    10ac:	d5 18 40 00 	ldd  [ %g1 ], %f10
    10b0:	91 a2 08 4a 	faddd  %f8, %f10, %f8
    10b4:	03 00 00 00 	sethi  %hi(0), %g1
    10b8:	95 a0 1a 48 	fdtoi  %f8, %f10
    10bc:	82 18 7f 10 	xor  %g1, -240, %g1
    10c0:	d5 27 bf dc 	st  %f10, [ %fp + -36 ]
    10c4:	82 05 c0 01 	add  %l7, %g1, %g1
    10c8:	95 a0 19 0a 	fitod  %f10, %f10
    10cc:	d1 18 40 00 	ldd  [ %g1 ], %f8
    10d0:	91 a2 89 48 	fmuld  %f10, %f8, %f8
    10d4:	f0 07 bf dc 	ld  [ %fp + -36 ], %i0
    10d8:	81 a0 08 c8 	fsubd  %f0, %f8, %f0
    10dc:	03 00 00 00 	sethi  %hi(0), %g1
    10e0:	80 a6 20 1f 	cmp  %i0, 0x1f
    10e4:	82 18 7f 18 	xor  %g1, -232, %g1
    10e8:	82 05 c0 01 	add  %l7, %g1, %g1
    10ec:	d1 18 40 00 	ldd  [ %g1 ], %f8
    10f0:	91 a2 89 48 	fmuld  %f10, %f8, %f8
    10f4:	14 80 00 0d 	bg  1128 <__ieee754_rem_pio2+0x1fc>
    10f8:	99 a0 08 c8 	fsubd  %f0, %f8, %f12
    10fc:	03 00 00 00 	sethi  %hi(0), %g1
    1100:	84 06 3f ff 	add  %i0, -1, %g2
    1104:	82 18 7d 30 	xor  %g1, -720, %g1
    1108:	85 28 a0 02 	sll  %g2, 2, %g2
    110c:	82 05 c0 01 	add  %l7, %g1, %g1
    1110:	c2 00 40 02 	ld  [ %g1 + %g2 ], %g1
    1114:	80 a7 00 01 	cmp  %i4, %g1
    1118:	22 80 00 05 	be,a   112c <__ieee754_rem_pio2+0x200>
    111c:	d9 27 bf dc 	st  %f12, [ %fp + -36 ]
    1120:	10 80 00 35 	b  11f4 <__ieee754_rem_pio2+0x2c8>
    1124:	d9 3e 80 00 	std  %f12, [ %i2 ]
    1128:	d9 27 bf dc 	st  %f12, [ %fp + -36 ]
    112c:	d9 3e 80 00 	std  %f12, [ %i2 ]
    1130:	b9 3f 20 14 	sra  %i4, 0x14, %i4
    1134:	c4 07 bf dc 	ld  [ %fp + -36 ], %g2
    1138:	83 30 a0 14 	srl  %g2, 0x14, %g1
    113c:	82 08 67 ff 	and  %g1, 0x7ff, %g1
    1140:	82 27 00 01 	sub  %i4, %g1, %g1
    1144:	80 a0 60 10 	cmp  %g1, 0x10
    1148:	24 80 00 2c 	ble,a   11f8 <__ieee754_rem_pio2+0x2cc>
    114c:	d5 1e 80 00 	ldd  [ %i2 ], %f10
    1150:	03 00 00 00 	sethi  %hi(0), %g1
    1154:	82 18 7f 20 	xor  %g1, -224, %g1
    1158:	82 05 c0 01 	add  %l7, %g1, %g1
    115c:	d1 18 40 00 	ldd  [ %g1 ], %f8
    1160:	91 a2 89 48 	fmuld  %f10, %f8, %f8
    1164:	99 a0 08 c8 	fsubd  %f0, %f8, %f12
    1168:	81 a0 08 cc 	fsubd  %f0, %f12, %f0
    116c:	03 00 00 00 	sethi  %hi(0), %g1
    1170:	91 a0 08 c8 	fsubd  %f0, %f8, %f8
    1174:	82 18 7f 28 	xor  %g1, -216, %g1
    1178:	82 05 c0 01 	add  %l7, %g1, %g1
    117c:	c1 18 40 00 	ldd  [ %g1 ], %f0
    1180:	81 a2 89 40 	fmuld  %f10, %f0, %f0
    1184:	91 a0 08 c8 	fsubd  %f0, %f8, %f8
    1188:	9d a3 08 c8 	fsubd  %f12, %f8, %f14
    118c:	dd 27 bf dc 	st  %f14, [ %fp + -36 ]
    1190:	dd 3e 80 00 	std  %f14, [ %i2 ]
    1194:	c4 07 bf dc 	ld  [ %fp + -36 ], %g2
    1198:	81 a0 00 2c 	fmovs  %f12, %f0
    119c:	83 30 a0 14 	srl  %g2, 0x14, %g1
    11a0:	82 08 67 ff 	and  %g1, 0x7ff, %g1
    11a4:	b8 27 00 01 	sub  %i4, %g1, %i4
    11a8:	80 a7 20 31 	cmp  %i4, 0x31
    11ac:	04 80 00 12 	ble  11f4 <__ieee754_rem_pio2+0x2c8>
    11b0:	83 a0 00 2d 	fmovs  %f13, %f1
    11b4:	03 00 00 00 	sethi  %hi(0), %g1
    11b8:	82 18 7f 40 	xor  %g1, -192, %g1
    11bc:	82 05 c0 01 	add  %l7, %g1, %g1
    11c0:	d1 18 40 00 	ldd  [ %g1 ], %f8
    11c4:	91 a2 89 48 	fmuld  %f10, %f8, %f8
    11c8:	81 a0 08 c8 	fsubd  %f0, %f8, %f0
    11cc:	99 a3 08 c0 	fsubd  %f12, %f0, %f12
    11d0:	03 00 00 00 	sethi  %hi(0), %g1
    11d4:	91 a3 08 c8 	fsubd  %f12, %f8, %f8
    11d8:	82 18 7f 48 	xor  %g1, -184, %g1
    11dc:	82 05 c0 01 	add  %l7, %g1, %g1
    11e0:	d9 18 40 00 	ldd  [ %g1 ], %f12
    11e4:	95 a2 89 4c 	fmuld  %f10, %f12, %f10
    11e8:	91 a2 88 c8 	fsubd  %f10, %f8, %f8
    11ec:	95 a0 08 c8 	fsubd  %f0, %f8, %f10
    11f0:	d5 3e 80 00 	std  %f10, [ %i2 ]
    11f4:	d5 1e 80 00 	ldd  [ %i2 ], %f10
    11f8:	81 a0 08 ca 	fsubd  %f0, %f10, %f0
    11fc:	91 a0 08 c8 	fsubd  %f0, %f8, %f8
    1200:	80 a7 60 00 	cmp  %i5, 0
    1204:	16 80 00 41 	bge  1308 <__ieee754_rem_pio2+0x3dc>
    1208:	d1 3e a0 08 	std  %f8, [ %i2 + 8 ]
    120c:	95 a0 00 aa 	fnegs  %f10, %f10
    1210:	10 80 00 3b 	b  12fc <__ieee754_rem_pio2+0x3d0>
    1214:	d5 3e 80 00 	std  %f10, [ %i2 ]
    1218:	82 10 63 ff 	or  %g1, 0x3ff, %g1
    121c:	80 a7 00 01 	cmp  %i4, %g1
    1220:	04 80 00 07 	ble  123c <__ieee754_rem_pio2+0x310>
    1224:	03 00 00 00 	sethi  %hi(0), %g1
    1228:	91 a2 08 c8 	fsubd  %f8, %f8, %f8
    122c:	d1 3e a0 08 	std  %f8, [ %i2 + 8 ]
    1230:	d1 3e 80 00 	std  %f8, [ %i2 ]
    1234:	81 c7 e0 08 	ret 
    1238:	91 e8 20 00 	restore  %g0, 0, %o0
    123c:	82 18 7f 08 	xor  %g1, -248, %g1
    1240:	9b a0 00 29 	fmovs  %f9, %f13
    1244:	84 05 c0 01 	add  %l7, %g1, %g2
    1248:	95 3f 20 14 	sra  %i4, 0x14, %o2
    124c:	94 02 bb ea 	add  %o2, -1046, %o2
    1250:	83 2a a0 14 	sll  %o2, 0x14, %g1
    1254:	82 27 00 01 	sub  %i4, %g1, %g1
    1258:	c2 27 bf dc 	st  %g1, [ %fp + -36 ]
    125c:	d9 07 bf dc 	ld  [ %fp + -36 ], %f12
    1260:	91 a0 1a 4c 	fdtoi  %f12, %f8
    1264:	91 a0 19 08 	fitod  %f8, %f8
    1268:	03 00 00 00 	sethi  %hi(0), %g1
    126c:	99 a3 08 c8 	fsubd  %f12, %f8, %f12
    1270:	d1 3f bf e8 	std  %f8, [ %fp + -24 ]
    1274:	82 18 7f 50 	xor  %g1, -176, %g1
    1278:	82 05 c0 01 	add  %l7, %g1, %g1
    127c:	d1 18 40 00 	ldd  [ %g1 ], %f8
    1280:	99 a3 09 48 	fmuld  %f12, %f8, %f12
    1284:	95 a0 1a 4c 	fdtoi  %f12, %f10
    1288:	95 a0 19 0a 	fitod  %f10, %f10
    128c:	d5 3f bf f0 	std  %f10, [ %fp + -16 ]
    1290:	95 a3 08 ca 	fsubd  %f12, %f10, %f10
    1294:	91 a2 89 48 	fmuld  %f10, %f8, %f8
    1298:	96 10 20 03 	mov  3, %o3
    129c:	d1 3f bf f8 	std  %f8, [ %fp + -8 ]
    12a0:	d1 18 80 00 	ldd  [ %g2 ], %f8
    12a4:	82 02 ff ff 	add  %o3, -1, %g1
    12a8:	85 28 60 03 	sll  %g1, 3, %g2
    12ac:	84 07 80 02 	add  %fp, %g2, %g2
    12b0:	d5 18 bf e8 	ldd  [ %g2 + -24 ], %f10
    12b4:	81 aa 8a 48 	fcmpd  %f10, %f8
    12b8:	01 00 00 00 	nop 
    12bc:	33 bf ff fa 	fbe,a   12a4 <__ieee754_rem_pio2+0x378>
    12c0:	96 10 00 01 	mov  %g1, %o3
    12c4:	90 07 bf e8 	add  %fp, -24, %o0
    12c8:	92 10 00 1a 	mov  %i2, %o1
    12cc:	98 10 20 02 	mov  2, %o4
    12d0:	1b 00 00 00 	sethi  %hi(0), %o5
    12d4:	9a 1b 7d b0 	xor  %o5, -592, %o5
    12d8:	40 00 00 7a 	call  14c0 <__kernel_rem_pio2>
    12dc:	9a 05 c0 0d 	add  %l7, %o5, %o5
    12e0:	80 a7 60 00 	cmp  %i5, 0
    12e4:	16 80 00 09 	bge  1308 <__ieee754_rem_pio2+0x3dc>
    12e8:	b0 10 00 08 	mov  %o0, %i0
    12ec:	d1 1e 80 00 	ldd  [ %i2 ], %f8
    12f0:	91 a0 00 a8 	fnegs  %f8, %f8
    12f4:	d1 3e 80 00 	std  %f8, [ %i2 ]
    12f8:	d1 1e a0 08 	ldd  [ %i2 + 8 ], %f8
    12fc:	91 a0 00 a8 	fnegs  %f8, %f8
    1300:	b0 20 00 18 	neg  %i0
    1304:	d1 3e a0 08 	std  %f8, [ %i2 + 8 ]
    1308:	81 c7 e0 08 	ret 
    130c:	81 e8 00 00 	restore 

00001310 <__kernel_cos>:
    1310:	9d e3 bf 90 	save  %sp, -112, %sp
    1314:	f0 3f bf f8 	std  %i0, [ %fp + -8 ]
    1318:	d5 1f bf f8 	ldd  [ %fp + -8 ], %f10
    131c:	f4 3f bf f8 	std  %i2, [ %fp + -8 ]
    1320:	2f 0f ff fc 	sethi  %hi(0x3ffff000), %l7
    1324:	40 00 17 35 	call  6ff8 <__sparc_get_pc_thunk.l7>
    1328:	ae 05 e0 04 	add  %l7, 4, %l7	! 3ffff004 <__sparc_get_pc_thunk.l7+0x3fff800c>
    132c:	03 20 00 00 	sethi  %hi(0x80000000), %g1
    1330:	05 0f 8f ff 	sethi  %hi(0x3e3ffc00), %g2
    1334:	82 2e 00 01 	andn  %i0, %g1, %g1
    1338:	84 10 a3 ff 	or  %g2, 0x3ff, %g2
    133c:	80 a0 40 02 	cmp  %g1, %g2
    1340:	14 80 00 08 	bg  1360 <__kernel_cos+0x50>
    1344:	d9 1f bf f8 	ldd  [ %fp + -8 ], %f12
    1348:	91 a0 1a 4a 	fdtoi  %f10, %f8
    134c:	d1 27 bf f4 	st  %f8, [ %fp + -12 ]
    1350:	c4 07 bf f4 	ld  [ %fp + -12 ], %g2
    1354:	80 a0 a0 00 	cmp  %g2, 0
    1358:	22 80 00 55 	be,a   14ac <__kernel_cos+0x19c>
    135c:	03 00 00 00 	sethi  %hi(0), %g1
    1360:	05 00 00 00 	sethi  %hi(0), %g2
    1364:	84 18 bf 68 	xor  %g2, -152, %g2
    1368:	84 05 c0 02 	add  %l7, %g2, %g2
    136c:	dd 18 80 00 	ldd  [ %g2 ], %f14
    1370:	05 00 00 00 	sethi  %hi(0), %g2
    1374:	84 18 bf 70 	xor  %g2, -144, %g2
    1378:	84 05 c0 02 	add  %l7, %g2, %g2
    137c:	e1 18 80 00 	ldd  [ %g2 ], %f16
    1380:	05 00 00 00 	sethi  %hi(0), %g2
    1384:	84 18 bf 78 	xor  %g2, -136, %g2
    1388:	84 05 c0 02 	add  %l7, %g2, %g2
    138c:	91 a2 89 4a 	fmuld  %f10, %f10, %f8
    1390:	9d a2 09 4e 	fmuld  %f8, %f14, %f14
    1394:	9d a3 88 50 	faddd  %f14, %f16, %f14
    1398:	e1 18 80 00 	ldd  [ %g2 ], %f16
    139c:	05 00 00 00 	sethi  %hi(0), %g2
    13a0:	84 18 bf 80 	xor  %g2, -128, %g2
    13a4:	84 05 c0 02 	add  %l7, %g2, %g2
    13a8:	9d a2 09 4e 	fmuld  %f8, %f14, %f14
    13ac:	9d a3 88 d0 	fsubd  %f14, %f16, %f14
    13b0:	e1 18 80 00 	ldd  [ %g2 ], %f16
    13b4:	05 00 00 00 	sethi  %hi(0), %g2
    13b8:	84 18 bf 88 	xor  %g2, -120, %g2
    13bc:	84 05 c0 02 	add  %l7, %g2, %g2
    13c0:	9d a2 09 4e 	fmuld  %f8, %f14, %f14
    13c4:	9d a3 88 50 	faddd  %f14, %f16, %f14
    13c8:	e1 18 80 00 	ldd  [ %g2 ], %f16
    13cc:	05 00 00 00 	sethi  %hi(0), %g2
    13d0:	84 18 bf 90 	xor  %g2, -112, %g2
    13d4:	84 05 c0 02 	add  %l7, %g2, %g2
    13d8:	9d a2 09 4e 	fmuld  %f8, %f14, %f14
    13dc:	95 a2 89 4c 	fmuld  %f10, %f12, %f10
    13e0:	9d a3 88 d0 	fsubd  %f14, %f16, %f14
    13e4:	e1 18 80 00 	ldd  [ %g2 ], %f16
    13e8:	9d a2 09 4e 	fmuld  %f8, %f14, %f14
    13ec:	05 0f f4 cc 	sethi  %hi(0x3fd33000), %g2
    13f0:	9d a3 88 50 	faddd  %f14, %f16, %f14
    13f4:	84 10 a3 32 	or  %g2, 0x332, %g2
    13f8:	9d a2 09 4e 	fmuld  %f8, %f14, %f14
    13fc:	80 a0 40 02 	cmp  %g1, %g2
    1400:	14 80 00 0e 	bg  1438 <__kernel_cos+0x128>
    1404:	9d a2 09 4e 	fmuld  %f8, %f14, %f14
    1408:	03 00 00 00 	sethi  %hi(0), %g1
    140c:	82 18 7f 38 	xor  %g1, -200, %g1
    1410:	82 05 c0 01 	add  %l7, %g1, %g1
    1414:	c1 18 40 00 	ldd  [ %g1 ], %f0
    1418:	95 a3 88 ca 	fsubd  %f14, %f10, %f10
    141c:	91 a2 09 40 	fmuld  %f8, %f0, %f8
    1420:	03 00 00 00 	sethi  %hi(0), %g1
    1424:	95 a2 08 ca 	fsubd  %f8, %f10, %f10
    1428:	82 18 7f 60 	xor  %g1, -160, %g1
    142c:	82 05 c0 01 	add  %l7, %g1, %g1
    1430:	10 80 00 1c 	b  14a0 <__kernel_cos+0x190>
    1434:	c1 18 40 00 	ldd  [ %g1 ], %f0
    1438:	05 0f fa 40 	sethi  %hi(0x3fe90000), %g2
    143c:	80 a0 40 02 	cmp  %g1, %g2
    1440:	34 80 00 08 	bg,a   1460 <__kernel_cos+0x150>
    1444:	03 00 00 00 	sethi  %hi(0), %g1
    1448:	09 3f f8 00 	sethi  %hi(0xffe00000), %g4
    144c:	86 10 20 00 	clr  %g3
    1450:	84 00 40 04 	add  %g1, %g4, %g2
    1454:	c4 3f bf f8 	std  %g2, [ %fp + -8 ]
    1458:	10 80 00 05 	b  146c <__kernel_cos+0x15c>
    145c:	d9 1f bf f8 	ldd  [ %fp + -8 ], %f12
    1460:	82 18 7f 58 	xor  %g1, -168, %g1
    1464:	82 05 c0 01 	add  %l7, %g1, %g1
    1468:	d9 18 40 00 	ldd  [ %g1 ], %f12
    146c:	03 00 00 00 	sethi  %hi(0), %g1
    1470:	82 18 7f 60 	xor  %g1, -160, %g1
    1474:	82 05 c0 01 	add  %l7, %g1, %g1
    1478:	95 a3 88 ca 	fsubd  %f14, %f10, %f10
    147c:	c1 18 40 00 	ldd  [ %g1 ], %f0
    1480:	03 00 00 00 	sethi  %hi(0), %g1
    1484:	81 a0 08 cc 	fsubd  %f0, %f12, %f0
    1488:	82 18 7f 38 	xor  %g1, -200, %g1
    148c:	82 05 c0 01 	add  %l7, %g1, %g1
    1490:	e1 18 40 00 	ldd  [ %g1 ], %f16
    1494:	91 a2 09 50 	fmuld  %f8, %f16, %f8
    1498:	99 a2 08 cc 	fsubd  %f8, %f12, %f12
    149c:	95 a3 08 ca 	fsubd  %f12, %f10, %f10
    14a0:	81 a0 08 ca 	fsubd  %f0, %f10, %f0
    14a4:	81 c7 e0 08 	ret 
    14a8:	81 e8 00 00 	restore 
    14ac:	82 18 7f 60 	xor  %g1, -160, %g1
    14b0:	82 05 c0 01 	add  %l7, %g1, %g1
    14b4:	c1 18 40 00 	ldd  [ %g1 ], %f0
    14b8:	81 c7 e0 08 	ret 
    14bc:	81 e8 00 00 	restore 

000014c0 <__kernel_rem_pio2>:
    14c0:	9d e3 bd 40 	save  %sp, -704, %sp
    14c4:	2f 0f ff fb 	sethi  %hi(0x3fffec00), %l7
    14c8:	40 00 16 cc 	call  6ff8 <__sparc_get_pc_thunk.l7>
    14cc:	ae 05 e2 60 	add  %l7, 0x260, %l7	! 3fffee60 <__sparc_get_pc_thunk.l7+0x3fff7e68>
    14d0:	03 00 00 00 	sethi  %hi(0), %g1
    14d4:	82 18 7e b8 	xor  %g1, -328, %g1
    14d8:	82 05 c0 01 	add  %l7, %g1, %g1
    14dc:	85 2f 20 02 	sll  %i4, 2, %g2
    14e0:	e2 00 40 02 	ld  [ %g1 + %g2 ], %l1
    14e4:	82 06 bf fd 	add  %i2, -3, %g1
    14e8:	87 38 60 1f 	sra  %g1, 0x1f, %g3
    14ec:	81 80 e0 00 	mov  %g3, %y
    14f0:	01 00 00 00 	nop 
    14f4:	01 00 00 00 	nop 
    14f8:	01 00 00 00 	nop 
    14fc:	82 78 60 18 	sdiv  %g1, 0x18, %g1
    1500:	88 38 00 01 	xnor  %g0, %g1, %g4
    1504:	89 39 20 1f 	sra  %g4, 0x1f, %g4
    1508:	88 08 40 04 	and  %g1, %g4, %g4
    150c:	82 38 00 04 	xnor  %g0, %g4, %g1
    1510:	86 00 40 01 	add  %g1, %g1, %g3
    1514:	82 00 c0 01 	add  %g3, %g1, %g1
    1518:	83 28 60 03 	sll  %g1, 3, %g1
    151c:	84 06 ff ff 	add  %i3, -1, %g2
    1520:	b4 06 80 01 	add  %i2, %g1, %i2
    1524:	1f 00 00 00 	sethi  %hi(0), %o7
    1528:	9e 1b ff 08 	xor  %o7, -248, %o7
    152c:	86 21 00 02 	sub  %g4, %g2, %g3
    1530:	b6 00 80 11 	add  %g2, %l1, %i3
    1534:	82 10 20 00 	clr  %g1
    1538:	10 80 00 0d 	b  156c <__kernel_rem_pio2+0xac>
    153c:	9e 05 c0 0f 	add  %l7, %o7, %o7
    1540:	06 80 00 05 	bl  1554 <__kernel_rem_pio2+0x94>
    1544:	9b 28 e0 02 	sll  %g3, 2, %o5
    1548:	d1 07 40 0d 	ld  [ %i5 + %o5 ], %f8
    154c:	10 80 00 03 	b  1558 <__kernel_rem_pio2+0x98>
    1550:	91 a0 19 08 	fitod  %f8, %f8
    1554:	d1 1b c0 00 	ldd  [ %o7 ], %f8
    1558:	9b 28 60 03 	sll  %g1, 3, %o5
    155c:	86 00 e0 01 	inc  %g3
    1560:	9a 07 80 0d 	add  %fp, %o5, %o5
    1564:	82 00 60 01 	inc  %g1
    1568:	d1 3b 7e 20 	std  %f8, [ %o5 + -480 ]
    156c:	80 a0 40 1b 	cmp  %g1, %i3
    1570:	04 bf ff f4 	ble  1540 <__kernel_rem_pio2+0x80>
    1574:	80 a0 e0 00 	cmp  %g3, 0
    1578:	1f 00 00 00 	sethi  %hi(0), %o7
    157c:	82 10 20 00 	clr  %g1
    1580:	9e 1b ff 08 	xor  %o7, -248, %o7
    1584:	10 80 00 11 	b  15c8 <__kernel_rem_pio2+0x108>
    1588:	9e 05 c0 0f 	add  %l7, %o7, %o7
    158c:	9a 26 c0 03 	sub  %i3, %g3, %o5
    1590:	d9 1e 00 0c 	ldd  [ %i0 + %o4 ], %f12
    1594:	9b 2b 60 03 	sll  %o5, 3, %o5
    1598:	86 00 e0 01 	inc  %g3
    159c:	9a 07 80 0d 	add  %fp, %o5, %o5
    15a0:	d5 1b 7e 20 	ldd  [ %o5 + -480 ], %f10
    15a4:	95 a3 09 4a 	fmuld  %f12, %f10, %f10
    15a8:	91 a2 08 4a 	faddd  %f8, %f10, %f8
    15ac:	80 a0 c0 02 	cmp  %g3, %g2
    15b0:	04 bf ff f7 	ble  158c <__kernel_rem_pio2+0xcc>
    15b4:	99 28 e0 03 	sll  %g3, 3, %o4
    15b8:	87 28 60 03 	sll  %g1, 3, %g3
    15bc:	82 00 60 01 	inc  %g1
    15c0:	86 07 80 03 	add  %fp, %g3, %g3
    15c4:	d1 38 ff 60 	std  %f8, [ %g3 + -160 ]
    15c8:	80 a0 40 11 	cmp  %g1, %l1
    15cc:	14 80 00 06 	bg  15e4 <__kernel_rem_pio2+0x124>
    15d0:	29 00 00 00 	sethi  %hi(0), %l4
    15d4:	d1 1b c0 00 	ldd  [ %o7 ], %f8
    15d8:	86 10 20 00 	clr  %g3
    15dc:	10 bf ff f4 	b  15ac <__kernel_rem_pio2+0xec>
    15e0:	b6 00 80 01 	add  %g2, %g1, %i3
    15e4:	2b 00 00 00 	sethi  %hi(0), %l5
    15e8:	a8 1d 3f 98 	xor  %l4, -104, %l4
    15ec:	aa 1d 7f 50 	xor  %l5, -176, %l5
    15f0:	a8 05 c0 14 	add  %l7, %l4, %l4
    15f4:	2d 00 00 00 	sethi  %hi(0), %l6
    15f8:	37 00 00 00 	sethi  %hi(0), %i3
    15fc:	ac 1d bf a0 	xor  %l6, -96, %l6
    1600:	b6 1e ff a8 	xor  %i3, -88, %i3
    1604:	27 00 00 00 	sethi  %hi(0), %l3
    1608:	a0 10 00 11 	mov  %l1, %l0
    160c:	a6 1c ff 08 	xor  %l3, -248, %l3
    1610:	e8 27 bd cc 	st  %l4, [ %fp + -564 ]
    1614:	aa 05 c0 15 	add  %l7, %l5, %l5
    1618:	ac 05 c0 16 	add  %l7, %l6, %l6
    161c:	b6 05 c0 1b 	add  %l7, %i3, %i3
    1620:	a6 05 c0 13 	add  %l7, %l3, %l3
    1624:	83 2c 20 03 	sll  %l0, 3, %g1
    1628:	82 07 80 01 	add  %fp, %g1, %g1
    162c:	86 10 20 00 	clr  %g3
    1630:	d1 18 7f 60 	ldd  [ %g1 + -160 ], %f8
    1634:	10 80 00 13 	b  1680 <__kernel_rem_pio2+0x1c0>
    1638:	82 10 00 10 	mov  %l0, %g1
    163c:	d5 1b c0 00 	ldd  [ %o7 ], %f10
    1640:	95 a2 09 4a 	fmuld  %f8, %f10, %f10
    1644:	9f 28 e0 02 	sll  %g3, 2, %o7
    1648:	95 a0 1a 4a 	fdtoi  %f10, %f10
    164c:	9e 07 80 0f 	add  %fp, %o7, %o7
    1650:	95 a0 19 0a 	fitod  %f10, %f10
    1654:	d9 1d 40 00 	ldd  [ %l5 ], %f12
    1658:	99 a2 89 4c 	fmuld  %f10, %f12, %f12
    165c:	91 a2 08 cc 	fsubd  %f8, %f12, %f8
    1660:	91 a0 1a 48 	fdtoi  %f8, %f8
    1664:	82 00 7f ff 	add  %g1, -1, %g1
    1668:	d1 23 fd d0 	st  %f8, [ %o7 + -560 ]
    166c:	86 00 e0 01 	inc  %g3
    1670:	9f 28 60 03 	sll  %g1, 3, %o7
    1674:	9e 07 80 0f 	add  %fp, %o7, %o7
    1678:	d1 1b ff 60 	ldd  [ %o7 + -160 ], %f8
    167c:	91 a2 88 48 	faddd  %f10, %f8, %f8
    1680:	80 a0 60 00 	cmp  %g1, 0
    1684:	14 bf ff ee 	bg  163c <__kernel_rem_pio2+0x17c>
    1688:	de 07 bd cc 	ld  [ %fp + -564 ], %o7
    168c:	d1 3f bd a8 	std  %f8, [ %fp + -600 ]
    1690:	c4 27 bd c8 	st  %g2, [ %fp + -568 ]
    1694:	c8 27 bd c4 	st  %g4, [ %fp + -572 ]
    1698:	d0 1f bd a8 	ldd  [ %fp + -600 ], %o0
    169c:	40 00 02 70 	call  205c <__GI_scalbln>
    16a0:	94 10 00 1a 	mov  %i2, %o2
    16a4:	d1 1d 80 00 	ldd  [ %l6 ], %f8
    16a8:	95 a0 00 20 	fmovs  %f0, %f10
    16ac:	97 a0 00 21 	fmovs  %f1, %f11
    16b0:	99 a2 89 48 	fmuld  %f10, %f8, %f12
    16b4:	d5 3f bd b0 	std  %f10, [ %fp + -592 ]
    16b8:	d9 3f bd a8 	std  %f12, [ %fp + -600 ]
    16bc:	40 00 01 f3 	call  1e88 <__GI_floor>
    16c0:	d0 1f bd a8 	ldd  [ %fp + -600 ], %o0
    16c4:	d1 1e c0 00 	ldd  [ %i3 ], %f8
    16c8:	d5 1f bd b0 	ldd  [ %fp + -592 ], %f10
    16cc:	81 a0 09 48 	fmuld  %f0, %f8, %f0
    16d0:	95 a2 88 c0 	fsubd  %f10, %f0, %f10
    16d4:	9b a0 1a 4a 	fdtoi  %f10, %f13
    16d8:	db 27 bd a4 	st  %f13, [ %fp + -604 ]
    16dc:	91 a0 19 0d 	fitod  %f13, %f8
    16e0:	e4 07 bd a4 	ld  [ %fp + -604 ], %l2
    16e4:	91 a2 88 c8 	fsubd  %f10, %f8, %f8
    16e8:	80 a6 a0 00 	cmp  %i2, 0
    16ec:	c4 07 bd c8 	ld  [ %fp + -568 ], %g2
    16f0:	04 80 00 11 	ble  1734 <__kernel_rem_pio2+0x274>
    16f4:	c8 07 bd c4 	ld  [ %fp + -572 ], %g4
    16f8:	9e 04 3f ff 	add  %l0, -1, %o7
    16fc:	86 10 20 18 	mov  0x18, %g3
    1700:	9f 2b e0 02 	sll  %o7, 2, %o7
    1704:	86 20 c0 1a 	sub  %g3, %i2, %g3
    1708:	9e 07 80 0f 	add  %fp, %o7, %o7
    170c:	da 03 fd d0 	ld  [ %o7 + -560 ], %o5
    1710:	83 3b 40 03 	sra  %o5, %g3, %g1
    1714:	87 28 40 03 	sll  %g1, %g3, %g3
    1718:	a4 04 80 01 	add  %l2, %g1, %l2
    171c:	86 23 40 03 	sub  %o5, %g3, %g3
    1720:	82 10 20 17 	mov  0x17, %g1
    1724:	c6 23 fd d0 	st  %g3, [ %o7 + -560 ]
    1728:	82 20 40 1a 	sub  %g1, %i2, %g1
    172c:	10 80 00 13 	b  1778 <__kernel_rem_pio2+0x2b8>
    1730:	a9 38 c0 01 	sra  %g3, %g1, %l4
    1734:	12 80 00 08 	bne  1754 <__kernel_rem_pio2+0x294>
    1738:	03 00 00 00 	sethi  %hi(0), %g1
    173c:	82 04 3f ff 	add  %l0, -1, %g1
    1740:	83 28 60 02 	sll  %g1, 2, %g1
    1744:	82 07 80 01 	add  %fp, %g1, %g1
    1748:	c2 00 7d d0 	ld  [ %g1 + -560 ], %g1
    174c:	10 80 00 0b 	b  1778 <__kernel_rem_pio2+0x2b8>
    1750:	a9 38 60 17 	sra  %g1, 0x17, %l4
    1754:	82 18 7f 38 	xor  %g1, -200, %g1
    1758:	82 05 c0 01 	add  %l7, %g1, %g1
    175c:	d5 18 40 00 	ldd  [ %g1 ], %f10
    1760:	81 aa 0a ca 	fcmped  %f8, %f10
    1764:	01 00 00 00 	nop 
    1768:	07 80 00 49 	fbul  188c <__kernel_rem_pio2+0x3cc>
    176c:	a8 10 20 00 	clr  %l4	! 0 <_start>
    1770:	10 80 00 07 	b  178c <__kernel_rem_pio2+0x2cc>
    1774:	a8 10 20 02 	mov  2, %l4
    1778:	80 a5 20 00 	cmp  %l4, 0
    177c:	14 80 00 05 	bg  1790 <__kernel_rem_pio2+0x2d0>
    1780:	17 00 3f ff 	sethi  %hi(0xfffc00), %o3
    1784:	10 80 00 43 	b  1890 <__kernel_rem_pio2+0x3d0>
    1788:	d5 1c c0 00 	ldd  [ %l3 ], %f10
    178c:	17 00 3f ff 	sethi  %hi(0xfffc00), %o3
    1790:	a4 04 a0 01 	inc  %l2
    1794:	9e 10 20 00 	clr  %o7
    1798:	86 10 20 00 	clr  %g3
    179c:	96 12 e3 ff 	or  %o3, 0x3ff, %o3
    17a0:	10 80 00 0f 	b  17dc <__kernel_rem_pio2+0x31c>
    17a4:	15 00 40 00 	sethi  %hi(0x1000000), %o2
    17a8:	80 a0 e0 00 	cmp  %g3, 0
    17ac:	9a 07 80 0d 	add  %fp, %o5, %o5
    17b0:	12 80 00 07 	bne  17cc <__kernel_rem_pio2+0x30c>
    17b4:	d8 03 7d d0 	ld  [ %o5 + -560 ], %o4
    17b8:	80 a3 20 00 	cmp  %o4, 0
    17bc:	22 80 00 08 	be,a   17dc <__kernel_rem_pio2+0x31c>
    17c0:	9e 03 e0 01 	inc  %o7
    17c4:	10 80 00 03 	b  17d0 <__kernel_rem_pio2+0x310>
    17c8:	98 22 80 0c 	sub  %o2, %o4, %o4
    17cc:	98 22 c0 0c 	sub  %o3, %o4, %o4
    17d0:	d8 23 7d d0 	st  %o4, [ %o5 + -560 ]
    17d4:	86 10 20 01 	mov  1, %g3
    17d8:	9e 03 e0 01 	inc  %o7
    17dc:	80 a3 c0 10 	cmp  %o7, %l0
    17e0:	06 bf ff f2 	bl  17a8 <__kernel_rem_pio2+0x2e8>
    17e4:	9b 2b e0 02 	sll  %o7, 2, %o5
    17e8:	80 a6 a0 00 	cmp  %i2, 0
    17ec:	04 80 00 14 	ble  183c <__kernel_rem_pio2+0x37c>
    17f0:	80 a6 a0 01 	cmp  %i2, 1
    17f4:	02 80 00 06 	be  180c <__kernel_rem_pio2+0x34c>
    17f8:	80 a6 a0 02 	cmp  %i2, 2
    17fc:	12 80 00 11 	bne  1840 <__kernel_rem_pio2+0x380>
    1800:	80 a5 20 02 	cmp  %l4, 2
    1804:	10 80 00 08 	b  1824 <__kernel_rem_pio2+0x364>
    1808:	9e 04 3f ff 	add  %l0, -1, %o7
    180c:	9e 04 3f ff 	add  %l0, -1, %o7
    1810:	19 3f e0 00 	sethi  %hi(0xff800000), %o4
    1814:	9f 2b e0 02 	sll  %o7, 2, %o7
    1818:	9e 07 80 0f 	add  %fp, %o7, %o7
    181c:	10 80 00 06 	b  1834 <__kernel_rem_pio2+0x374>
    1820:	da 03 fd d0 	ld  [ %o7 + -560 ], %o5
    1824:	19 3f f0 00 	sethi  %hi(0xffc00000), %o4
    1828:	9f 2b e0 02 	sll  %o7, 2, %o7
    182c:	9e 07 80 0f 	add  %fp, %o7, %o7
    1830:	da 03 fd d0 	ld  [ %o7 + -560 ], %o5
    1834:	9a 2b 40 0c 	andn  %o5, %o4, %o5
    1838:	da 23 fd d0 	st  %o5, [ %o7 + -560 ]
    183c:	80 a5 20 02 	cmp  %l4, 2
    1840:	32 80 00 14 	bne,a   1890 <__kernel_rem_pio2+0x3d0>
    1844:	d5 1c c0 00 	ldd  [ %l3 ], %f10
    1848:	1f 00 00 00 	sethi  %hi(0), %o7
    184c:	80 a0 e0 00 	cmp  %g3, 0
    1850:	9e 1b ff 60 	xor  %o7, -160, %o7
    1854:	9e 05 c0 0f 	add  %l7, %o7, %o7
    1858:	d5 1b c0 00 	ldd  [ %o7 ], %f10
    185c:	02 80 00 0c 	be  188c <__kernel_rem_pio2+0x3cc>
    1860:	91 a2 88 c8 	fsubd  %f10, %f8, %f8
    1864:	c4 27 bd c8 	st  %g2, [ %fp + -568 ]
    1868:	c8 27 bd c4 	st  %g4, [ %fp + -572 ]
    186c:	d1 3f bd b8 	std  %f8, [ %fp + -584 ]
    1870:	d0 1b c0 00 	ldd  [ %o7 ], %o0
    1874:	40 00 01 fa 	call  205c <__GI_scalbln>
    1878:	94 10 00 1a 	mov  %i2, %o2
    187c:	d1 1f bd b8 	ldd  [ %fp + -584 ], %f8
    1880:	c8 07 bd c4 	ld  [ %fp + -572 ], %g4
    1884:	91 a2 08 c0 	fsubd  %f8, %f0, %f8
    1888:	c4 07 bd c8 	ld  [ %fp + -568 ], %g2
    188c:	d5 1c c0 00 	ldd  [ %l3 ], %f10
    1890:	81 aa 0a 4a 	fcmpd  %f8, %f10
    1894:	01 00 00 00 	nop 
    1898:	03 80 00 38 	fbne  1978 <__kernel_rem_pio2+0x4b8>
    189c:	86 04 3f ff 	add  %l0, -1, %g3
    18a0:	10 80 00 06 	b  18b8 <__kernel_rem_pio2+0x3f8>
    18a4:	9e 10 20 00 	clr  %o7
    18a8:	86 00 ff ff 	add  %g3, -1, %g3
    18ac:	9a 07 80 0d 	add  %fp, %o5, %o5
    18b0:	da 03 7d d0 	ld  [ %o5 + -560 ], %o5
    18b4:	9e 13 c0 0d 	or  %o7, %o5, %o7
    18b8:	80 a0 c0 11 	cmp  %g3, %l1
    18bc:	16 bf ff fb 	bge  18a8 <__kernel_rem_pio2+0x3e8>
    18c0:	9b 28 e0 02 	sll  %g3, 2, %o5
    18c4:	80 a3 e0 00 	cmp  %o7, 0
    18c8:	22 80 00 04 	be,a   18d8 <__kernel_rem_pio2+0x418>
    18cc:	86 10 20 01 	mov  1, %g3
    18d0:	10 80 00 2b 	b  197c <__kernel_rem_pio2+0x4bc>
    18d4:	05 00 00 00 	sethi  %hi(0), %g2
    18d8:	82 24 40 03 	sub  %l1, %g3, %g1
    18dc:	83 28 60 02 	sll  %g1, 2, %g1
    18e0:	82 07 80 01 	add  %fp, %g1, %g1
    18e4:	c2 00 7d d0 	ld  [ %g1 + -560 ], %g1
    18e8:	80 a0 60 00 	cmp  %g1, 0
    18ec:	22 bf ff fb 	be,a   18d8 <__kernel_rem_pio2+0x418>
    18f0:	86 00 e0 01 	inc  %g3
    18f4:	82 04 20 01 	add  %l0, 1, %g1
    18f8:	10 80 00 1b 	b  1964 <__kernel_rem_pio2+0x4a4>
    18fc:	a0 04 00 03 	add  %l0, %g3, %l0
    1900:	9a 01 00 01 	add  %g4, %g1, %o5
    1904:	87 2b e0 03 	sll  %o7, 3, %g3
    1908:	9b 2b 60 02 	sll  %o5, 2, %o5
    190c:	86 07 80 03 	add  %fp, %g3, %g3
    1910:	d1 07 40 0d 	ld  [ %i5 + %o5 ], %f8
    1914:	91 a0 19 08 	fitod  %f8, %f8
    1918:	d1 38 fe 20 	std  %f8, [ %g3 + -480 ]
    191c:	d1 1c c0 00 	ldd  [ %l3 ], %f8
    1920:	10 80 00 0a 	b  1948 <__kernel_rem_pio2+0x488>
    1924:	86 10 20 00 	clr  %g3
    1928:	9a 23 c0 03 	sub  %o7, %g3, %o5
    192c:	d9 1e 00 0c 	ldd  [ %i0 + %o4 ], %f12
    1930:	9b 2b 60 03 	sll  %o5, 3, %o5
    1934:	86 00 e0 01 	inc  %g3
    1938:	9a 07 80 0d 	add  %fp, %o5, %o5
    193c:	d5 1b 7e 20 	ldd  [ %o5 + -480 ], %f10
    1940:	95 a3 09 4a 	fmuld  %f12, %f10, %f10
    1944:	91 a2 08 4a 	faddd  %f8, %f10, %f8
    1948:	80 a0 c0 02 	cmp  %g3, %g2
    194c:	04 bf ff f7 	ble  1928 <__kernel_rem_pio2+0x468>
    1950:	99 28 e0 03 	sll  %g3, 3, %o4
    1954:	87 28 60 03 	sll  %g1, 3, %g3
    1958:	82 00 60 01 	inc  %g1
    195c:	86 07 80 03 	add  %fp, %g3, %g3
    1960:	d1 38 ff 60 	std  %f8, [ %g3 + -160 ]
    1964:	80 a0 40 10 	cmp  %g1, %l0
    1968:	24 bf ff e6 	ble,a   1900 <__kernel_rem_pio2+0x440>
    196c:	9e 00 80 01 	add  %g2, %g1, %o7
    1970:	10 bf ff 2e 	b  1628 <__kernel_rem_pio2+0x168>
    1974:	83 2c 20 03 	sll  %l0, 3, %g1
    1978:	05 00 00 00 	sethi  %hi(0), %g2
    197c:	84 18 bf 08 	xor  %g2, -248, %g2
    1980:	84 05 c0 02 	add  %l7, %g2, %g2
    1984:	d5 18 80 00 	ldd  [ %g2 ], %f10
    1988:	81 aa 0a 4a 	fcmpd  %f8, %f10
    198c:	01 00 00 00 	nop 
    1990:	23 80 00 0b 	fbne,a   19bc <__kernel_rem_pio2+0x4fc>
    1994:	d1 3f bd a8 	std  %f8, [ %fp + -600 ]
    1998:	a0 04 3f ff 	add  %l0, -1, %l0
    199c:	85 2c 20 02 	sll  %l0, 2, %g2
    19a0:	84 07 80 02 	add  %fp, %g2, %g2
    19a4:	c4 00 bd d0 	ld  [ %g2 + -560 ], %g2
    19a8:	80 a0 a0 00 	cmp  %g2, 0
    19ac:	02 bf ff fb 	be  1998 <__kernel_rem_pio2+0x4d8>
    19b0:	b4 06 bf e8 	add  %i2, -24, %i2
    19b4:	10 80 00 26 	b  1a4c <__kernel_rem_pio2+0x58c>
    19b8:	05 00 00 00 	sethi  %hi(0), %g2
    19bc:	94 20 00 1a 	neg  %i2, %o2
    19c0:	40 00 01 a7 	call  205c <__GI_scalbln>
    19c4:	d0 1f bd a8 	ldd  [ %fp + -600 ], %o0
    19c8:	05 00 00 00 	sethi  %hi(0), %g2
    19cc:	84 18 bf 50 	xor  %g2, -176, %g2
    19d0:	84 05 c0 02 	add  %l7, %g2, %g2
    19d4:	d5 18 80 00 	ldd  [ %g2 ], %f10
    19d8:	81 a8 0a ca 	fcmped  %f0, %f10
    19dc:	01 00 00 00 	nop 
    19e0:	07 80 00 16 	fbul  1a38 <__kernel_rem_pio2+0x578>
    19e4:	01 00 00 00 	nop 
    19e8:	05 00 00 00 	sethi  %hi(0), %g2
    19ec:	84 18 bf 98 	xor  %g2, -104, %g2
    19f0:	84 05 c0 02 	add  %l7, %g2, %g2
    19f4:	d1 18 80 00 	ldd  [ %g2 ], %f8
    19f8:	91 a0 09 48 	fmuld  %f0, %f8, %f8
    19fc:	85 2c 20 02 	sll  %l0, 2, %g2
    1a00:	91 a0 1a 48 	fdtoi  %f8, %f8
    1a04:	84 07 80 02 	add  %fp, %g2, %g2
    1a08:	91 a0 19 08 	fitod  %f8, %f8
    1a0c:	95 a2 09 4a 	fmuld  %f8, %f10, %f10
    1a10:	81 a0 08 ca 	fsubd  %f0, %f10, %f0
    1a14:	81 a0 1a 40 	fdtoi  %f0, %f0
    1a18:	c1 20 bd d0 	st  %f0, [ %g2 + -560 ]
    1a1c:	a0 04 20 01 	inc  %l0
    1a20:	91 a0 1a 48 	fdtoi  %f8, %f8
    1a24:	85 2c 20 02 	sll  %l0, 2, %g2
    1a28:	b4 06 a0 18 	add  %i2, 0x18, %i2
    1a2c:	84 07 80 02 	add  %fp, %g2, %g2
    1a30:	10 80 00 06 	b  1a48 <__kernel_rem_pio2+0x588>
    1a34:	d1 20 bd d0 	st  %f8, [ %g2 + -560 ]
    1a38:	85 2c 20 02 	sll  %l0, 2, %g2
    1a3c:	81 a0 1a 40 	fdtoi  %f0, %f0
    1a40:	84 07 80 02 	add  %fp, %g2, %g2
    1a44:	c1 20 bd d0 	st  %f0, [ %g2 + -560 ]
    1a48:	05 00 00 00 	sethi  %hi(0), %g2
    1a4c:	84 18 bf 60 	xor  %g2, -160, %g2
    1a50:	84 05 c0 02 	add  %l7, %g2, %g2
    1a54:	94 10 00 1a 	mov  %i2, %o2
    1a58:	40 00 01 81 	call  205c <__GI_scalbln>
    1a5c:	d0 18 80 00 	ldd  [ %g2 ], %o0
    1a60:	07 00 00 00 	sethi  %hi(0), %g3
    1a64:	84 10 00 10 	mov  %l0, %g2
    1a68:	86 18 ff 98 	xor  %g3, -104, %g3
    1a6c:	10 80 00 0c 	b  1a9c <__kernel_rem_pio2+0x5dc>
    1a70:	86 05 c0 03 	add  %l7, %g3, %g3
    1a74:	ba 07 80 1d 	add  %fp, %i5, %i5
    1a78:	d1 07 7d d0 	ld  [ %i5 + -560 ], %f8
    1a7c:	91 a0 19 08 	fitod  %f8, %f8
    1a80:	91 a0 09 48 	fmuld  %f0, %f8, %f8
    1a84:	89 28 a0 03 	sll  %g2, 3, %g4
    1a88:	84 00 bf ff 	add  %g2, -1, %g2
    1a8c:	88 07 80 04 	add  %fp, %g4, %g4
    1a90:	d1 39 3f 60 	std  %f8, [ %g4 + -160 ]
    1a94:	d1 18 c0 00 	ldd  [ %g3 ], %f8
    1a98:	81 a0 09 48 	fmuld  %f0, %f8, %f0
    1a9c:	80 a0 a0 00 	cmp  %g2, 0
    1aa0:	36 bf ff f5 	bge,a   1a74 <__kernel_rem_pio2+0x5b4>
    1aa4:	bb 28 a0 02 	sll  %g2, 2, %i5
    1aa8:	3b 00 00 00 	sethi  %hi(0), %i5
    1aac:	37 00 00 00 	sethi  %hi(0), %i3
    1ab0:	ba 1f 7f 08 	xor  %i5, -248, %i5
    1ab4:	b6 1e fe c8 	xor  %i3, -312, %i3
    1ab8:	86 10 00 10 	mov  %l0, %g3
    1abc:	ba 05 c0 1d 	add  %l7, %i5, %i5
    1ac0:	10 80 00 13 	b  1b0c <__kernel_rem_pio2+0x64c>
    1ac4:	b6 05 c0 1b 	add  %l7, %i3, %i3
    1ac8:	b4 00 c0 02 	add  %g3, %g2, %i2
    1acc:	d9 1e c0 18 	ldd  [ %i3 + %i0 ], %f12
    1ad0:	b5 2e a0 03 	sll  %i2, 3, %i2
    1ad4:	84 00 a0 01 	inc  %g2
    1ad8:	b4 07 80 1a 	add  %fp, %i2, %i2
    1adc:	d5 1e bf 60 	ldd  [ %i2 + -160 ], %f10
    1ae0:	95 a3 09 4a 	fmuld  %f12, %f10, %f10
    1ae4:	91 a2 08 4a 	faddd  %f8, %f10, %f8
    1ae8:	80 a0 80 11 	cmp  %g2, %l1
    1aec:	14 80 00 04 	bg  1afc <__kernel_rem_pio2+0x63c>
    1af0:	80 a0 80 04 	cmp  %g2, %g4
    1af4:	04 bf ff f5 	ble  1ac8 <__kernel_rem_pio2+0x608>
    1af8:	b1 28 a0 03 	sll  %g2, 3, %i0
    1afc:	89 29 20 03 	sll  %g4, 3, %g4
    1b00:	86 00 ff ff 	add  %g3, -1, %g3
    1b04:	88 07 80 04 	add  %fp, %g4, %g4
    1b08:	d1 39 3e c0 	std  %f8, [ %g4 + -320 ]
    1b0c:	80 a0 e0 00 	cmp  %g3, 0
    1b10:	06 80 00 05 	bl  1b24 <__kernel_rem_pio2+0x664>
    1b14:	84 10 20 00 	clr  %g2
    1b18:	d1 1f 40 00 	ldd  [ %i5 ], %f8
    1b1c:	10 bf ff f3 	b  1ae8 <__kernel_rem_pio2+0x628>
    1b20:	88 24 00 03 	sub  %l0, %g3, %g4
    1b24:	80 a7 20 02 	cmp  %i4, 2
    1b28:	14 80 00 0b 	bg  1b54 <__kernel_rem_pio2+0x694>
    1b2c:	80 a7 20 03 	cmp  %i4, 3
    1b30:	80 a7 20 01 	cmp  %i4, 1
    1b34:	16 80 00 21 	bge  1bb8 <__kernel_rem_pio2+0x6f8>
    1b38:	07 00 00 00 	sethi  %hi(0), %g3
    1b3c:	80 a7 20 00 	cmp  %i4, 0
    1b40:	02 80 00 0e 	be  1b78 <__kernel_rem_pio2+0x6b8>
    1b44:	05 00 00 00 	sethi  %hi(0), %g2
    1b48:	b0 0c a0 07 	and  %l2, 7, %i0
    1b4c:	81 c7 e0 08 	ret 
    1b50:	81 e8 00 00 	restore 
    1b54:	12 80 00 72 	bne  1d1c <__kernel_rem_pio2+0x85c>
    1b58:	b0 0c a0 07 	and  %l2, 7, %i0
    1b5c:	10 80 00 41 	b  1c60 <__kernel_rem_pio2+0x7a0>
    1b60:	84 10 00 10 	mov  %l0, %g2
    1b64:	a0 04 3f ff 	add  %l0, -1, %l0
    1b68:	84 07 80 02 	add  %fp, %g2, %g2
    1b6c:	d5 18 be c0 	ldd  [ %g2 + -320 ], %f10
    1b70:	10 80 00 05 	b  1b84 <__kernel_rem_pio2+0x6c4>
    1b74:	91 a2 08 4a 	faddd  %f8, %f10, %f8
    1b78:	84 18 bf 08 	xor  %g2, -248, %g2
    1b7c:	84 05 c0 02 	add  %l7, %g2, %g2
    1b80:	d1 18 80 00 	ldd  [ %g2 ], %f8
    1b84:	80 a4 20 00 	cmp  %l0, 0
    1b88:	16 bf ff f7 	bge  1b64 <__kernel_rem_pio2+0x6a4>
    1b8c:	85 2c 20 03 	sll  %l0, 3, %g2
    1b90:	80 a5 20 00 	cmp  %l4, 0
    1b94:	32 80 00 02 	bne,a   1b9c <__kernel_rem_pio2+0x6dc>
    1b98:	91 a0 00 a8 	fnegs  %f8, %f8
    1b9c:	10 80 00 5f 	b  1d18 <__kernel_rem_pio2+0x858>
    1ba0:	d1 3e 40 00 	std  %f8, [ %i1 ]
    1ba4:	84 00 bf ff 	add  %g2, -1, %g2
    1ba8:	86 07 80 03 	add  %fp, %g3, %g3
    1bac:	d5 18 fe c0 	ldd  [ %g3 + -320 ], %f10
    1bb0:	10 80 00 06 	b  1bc8 <__kernel_rem_pio2+0x708>
    1bb4:	91 a2 08 4a 	faddd  %f8, %f10, %f8
    1bb8:	84 10 00 10 	mov  %l0, %g2
    1bbc:	86 18 ff 08 	xor  %g3, -248, %g3
    1bc0:	86 05 c0 03 	add  %l7, %g3, %g3
    1bc4:	d1 18 c0 00 	ldd  [ %g3 ], %f8
    1bc8:	80 a0 a0 00 	cmp  %g2, 0
    1bcc:	16 bf ff f6 	bge  1ba4 <__kernel_rem_pio2+0x6e4>
    1bd0:	87 28 a0 03 	sll  %g2, 3, %g3
    1bd4:	95 a0 00 28 	fmovs  %f8, %f10
    1bd8:	80 a5 20 00 	cmp  %l4, 0
    1bdc:	02 80 00 04 	be  1bec <__kernel_rem_pio2+0x72c>
    1be0:	97 a0 00 29 	fmovs  %f9, %f11
    1be4:	95 a0 00 a8 	fnegs  %f8, %f10
    1be8:	97 a0 00 29 	fmovs  %f9, %f11
    1bec:	d5 3e 40 00 	std  %f10, [ %i1 ]
    1bf0:	84 10 20 01 	mov  1, %g2
    1bf4:	d5 1f be c0 	ldd  [ %fp + -320 ], %f10
    1bf8:	10 80 00 06 	b  1c10 <__kernel_rem_pio2+0x750>
    1bfc:	91 a2 88 c8 	fsubd  %f10, %f8, %f8
    1c00:	84 00 a0 01 	inc  %g2
    1c04:	86 07 80 03 	add  %fp, %g3, %g3
    1c08:	d5 18 fe c0 	ldd  [ %g3 + -320 ], %f10
    1c0c:	91 a2 08 4a 	faddd  %f8, %f10, %f8
    1c10:	80 a0 80 10 	cmp  %g2, %l0
    1c14:	04 bf ff fb 	ble  1c00 <__kernel_rem_pio2+0x740>
    1c18:	87 28 a0 03 	sll  %g2, 3, %g3
    1c1c:	80 a5 20 00 	cmp  %l4, 0
    1c20:	32 80 00 02 	bne,a   1c28 <__kernel_rem_pio2+0x768>
    1c24:	91 a0 00 a8 	fnegs  %f8, %f8
    1c28:	10 80 00 3c 	b  1d18 <__kernel_rem_pio2+0x858>
    1c2c:	d1 3e 60 08 	std  %f8, [ %i1 + 8 ]
    1c30:	85 28 a0 03 	sll  %g2, 3, %g2
    1c34:	89 28 e0 03 	sll  %g3, 3, %g4
    1c38:	84 07 80 02 	add  %fp, %g2, %g2
    1c3c:	88 07 80 04 	add  %fp, %g4, %g4
    1c40:	d5 18 be c0 	ldd  [ %g2 + -320 ], %f10
    1c44:	d9 19 3e c0 	ldd  [ %g4 + -320 ], %f12
    1c48:	91 a3 08 4a 	faddd  %f12, %f10, %f8
    1c4c:	99 a3 08 c8 	fsubd  %f12, %f8, %f12
    1c50:	95 a2 88 4c 	faddd  %f10, %f12, %f10
    1c54:	d5 38 be c0 	std  %f10, [ %g2 + -320 ]
    1c58:	d1 39 3e c0 	std  %f8, [ %g4 + -320 ]
    1c5c:	84 10 00 03 	mov  %g3, %g2
    1c60:	80 a0 a0 00 	cmp  %g2, 0
    1c64:	14 bf ff f3 	bg  1c30 <__kernel_rem_pio2+0x770>
    1c68:	86 00 bf ff 	add  %g2, -1, %g3
    1c6c:	10 80 00 0e 	b  1ca4 <__kernel_rem_pio2+0x7e4>
    1c70:	84 10 00 10 	mov  %l0, %g2
    1c74:	85 28 a0 03 	sll  %g2, 3, %g2
    1c78:	89 28 e0 03 	sll  %g3, 3, %g4
    1c7c:	84 07 80 02 	add  %fp, %g2, %g2
    1c80:	88 07 80 04 	add  %fp, %g4, %g4
    1c84:	d5 18 be c0 	ldd  [ %g2 + -320 ], %f10
    1c88:	d9 19 3e c0 	ldd  [ %g4 + -320 ], %f12
    1c8c:	91 a3 08 4a 	faddd  %f12, %f10, %f8
    1c90:	99 a3 08 c8 	fsubd  %f12, %f8, %f12
    1c94:	95 a2 88 4c 	faddd  %f10, %f12, %f10
    1c98:	d5 38 be c0 	std  %f10, [ %g2 + -320 ]
    1c9c:	d1 39 3e c0 	std  %f8, [ %g4 + -320 ]
    1ca0:	84 10 00 03 	mov  %g3, %g2
    1ca4:	80 a0 a0 01 	cmp  %g2, 1
    1ca8:	14 bf ff f3 	bg  1c74 <__kernel_rem_pio2+0x7b4>
    1cac:	86 00 bf ff 	add  %g2, -1, %g3
    1cb0:	05 00 00 00 	sethi  %hi(0), %g2
    1cb4:	84 18 bf 08 	xor  %g2, -248, %g2
    1cb8:	84 05 c0 02 	add  %l7, %g2, %g2
    1cbc:	10 80 00 06 	b  1cd4 <__kernel_rem_pio2+0x814>
    1cc0:	d1 18 80 00 	ldd  [ %g2 ], %f8
    1cc4:	a0 04 3f ff 	add  %l0, -1, %l0
    1cc8:	84 07 80 02 	add  %fp, %g2, %g2
    1ccc:	d5 18 be c0 	ldd  [ %g2 + -320 ], %f10
    1cd0:	91 a2 08 4a 	faddd  %f8, %f10, %f8
    1cd4:	80 a4 20 01 	cmp  %l0, 1
    1cd8:	14 bf ff fb 	bg  1cc4 <__kernel_rem_pio2+0x804>
    1cdc:	85 2c 20 03 	sll  %l0, 3, %g2
    1ce0:	80 a5 20 00 	cmp  %l4, 0
    1ce4:	12 80 00 06 	bne  1cfc <__kernel_rem_pio2+0x83c>
    1ce8:	d5 1f be c0 	ldd  [ %fp + -320 ], %f10
    1cec:	d5 3e 40 00 	std  %f10, [ %i1 ]
    1cf0:	d5 1f be c8 	ldd  [ %fp + -312 ], %f10
    1cf4:	10 80 00 08 	b  1d14 <__kernel_rem_pio2+0x854>
    1cf8:	d5 3e 60 08 	std  %f10, [ %i1 + 8 ]
    1cfc:	95 a0 00 aa 	fnegs  %f10, %f10
    1d00:	91 a0 00 a8 	fnegs  %f8, %f8
    1d04:	d5 3e 40 00 	std  %f10, [ %i1 ]
    1d08:	d5 1f be c8 	ldd  [ %fp + -312 ], %f10
    1d0c:	95 a0 00 aa 	fnegs  %f10, %f10
    1d10:	d5 3e 60 08 	std  %f10, [ %i1 + 8 ]
    1d14:	d1 3e 60 10 	std  %f8, [ %i1 + 0x10 ]
    1d18:	b0 0c a0 07 	and  %l2, 7, %i0
    1d1c:	81 c7 e0 08 	ret 
    1d20:	81 e8 00 00 	restore 

00001d24 <__kernel_sin>:
    1d24:	9d e3 bf 90 	save  %sp, -112, %sp
    1d28:	f0 3f bf f8 	std  %i0, [ %fp + -8 ]
    1d2c:	03 20 00 00 	sethi  %hi(0x80000000), %g1
    1d30:	c1 1f bf f8 	ldd  [ %fp + -8 ], %f0
    1d34:	f4 3f bf f8 	std  %i2, [ %fp + -8 ]
    1d38:	84 2e 00 01 	andn  %i0, %g1, %g2
    1d3c:	2f 0f ff f9 	sethi  %hi(0x3fffe400), %l7
    1d40:	40 00 14 ae 	call  6ff8 <__sparc_get_pc_thunk.l7>
    1d44:	ae 05 e1 e8 	add  %l7, 0x1e8, %l7	! 3fffe5e8 <__sparc_get_pc_thunk.l7+0x3fff75f0>
    1d48:	03 0f 8f ff 	sethi  %hi(0x3e3ffc00), %g1
    1d4c:	82 10 63 ff 	or  %g1, 0x3ff, %g1	! 3e3fffff <__sparc_get_pc_thunk.l7+0x3e3f9007>
    1d50:	80 a0 80 01 	cmp  %g2, %g1
    1d54:	14 80 00 08 	bg  1d74 <__kernel_sin+0x50>
    1d58:	d9 1f bf f8 	ldd  [ %fp + -8 ], %f12
    1d5c:	91 a0 1a 40 	fdtoi  %f0, %f8
    1d60:	d1 27 bf f4 	st  %f8, [ %fp + -12 ]
    1d64:	c2 07 bf f4 	ld  [ %fp + -12 ], %g1
    1d68:	80 a0 60 00 	cmp  %g1, 0
    1d6c:	02 80 00 3c 	be  1e5c <__kernel_sin+0x138>
    1d70:	01 00 00 00 	nop 
    1d74:	03 00 00 00 	sethi  %hi(0), %g1
    1d78:	82 18 7f b0 	xor  %g1, -80, %g1
    1d7c:	82 05 c0 01 	add  %l7, %g1, %g1
    1d80:	dd 18 40 00 	ldd  [ %g1 ], %f14
    1d84:	03 00 00 00 	sethi  %hi(0), %g1
    1d88:	82 18 7f b8 	xor  %g1, -72, %g1
    1d8c:	82 05 c0 01 	add  %l7, %g1, %g1
    1d90:	e1 18 40 00 	ldd  [ %g1 ], %f16
    1d94:	91 a0 09 40 	fmuld  %f0, %f0, %f8
    1d98:	03 00 00 00 	sethi  %hi(0), %g1
    1d9c:	9d a2 09 4e 	fmuld  %f8, %f14, %f14
    1da0:	82 18 7f c0 	xor  %g1, -64, %g1
    1da4:	9d a3 88 d0 	fsubd  %f14, %f16, %f14
    1da8:	82 05 c0 01 	add  %l7, %g1, %g1
    1dac:	e1 18 40 00 	ldd  [ %g1 ], %f16
    1db0:	9d a2 09 4e 	fmuld  %f8, %f14, %f14
    1db4:	03 00 00 00 	sethi  %hi(0), %g1
    1db8:	9d a3 88 50 	faddd  %f14, %f16, %f14
    1dbc:	82 18 7f c8 	xor  %g1, -56, %g1
    1dc0:	82 05 c0 01 	add  %l7, %g1, %g1
    1dc4:	e1 18 40 00 	ldd  [ %g1 ], %f16
    1dc8:	9d a2 09 4e 	fmuld  %f8, %f14, %f14
    1dcc:	03 00 00 00 	sethi  %hi(0), %g1
    1dd0:	9d a3 88 d0 	fsubd  %f14, %f16, %f14
    1dd4:	82 18 7f d0 	xor  %g1, -48, %g1
    1dd8:	9d a2 09 4e 	fmuld  %f8, %f14, %f14
    1ddc:	82 05 c0 01 	add  %l7, %g1, %g1
    1de0:	95 a2 09 40 	fmuld  %f8, %f0, %f10
    1de4:	e1 18 40 00 	ldd  [ %g1 ], %f16
    1de8:	80 a7 20 00 	cmp  %i4, 0
    1dec:	12 80 00 0c 	bne  1e1c <__kernel_sin+0xf8>
    1df0:	9d a3 88 50 	faddd  %f14, %f16, %f14
    1df4:	91 a2 09 4e 	fmuld  %f8, %f14, %f8
    1df8:	03 00 00 00 	sethi  %hi(0), %g1
    1dfc:	82 18 7f d8 	xor  %g1, -40, %g1
    1e00:	82 05 c0 01 	add  %l7, %g1, %g1
    1e04:	d9 18 40 00 	ldd  [ %g1 ], %f12
    1e08:	91 a2 08 cc 	fsubd  %f8, %f12, %f8
    1e0c:	95 a2 89 48 	fmuld  %f10, %f8, %f10
    1e10:	81 a0 08 4a 	faddd  %f0, %f10, %f0
    1e14:	81 c7 e0 08 	ret 
    1e18:	81 e8 00 00 	restore 
    1e1c:	9d a2 89 4e 	fmuld  %f10, %f14, %f14
    1e20:	03 00 00 00 	sethi  %hi(0), %g1
    1e24:	82 18 7f 38 	xor  %g1, -200, %g1
    1e28:	82 05 c0 01 	add  %l7, %g1, %g1
    1e2c:	e1 18 40 00 	ldd  [ %g1 ], %f16
    1e30:	a1 a3 09 50 	fmuld  %f12, %f16, %f16
    1e34:	9d a4 08 ce 	fsubd  %f16, %f14, %f14
    1e38:	91 a2 09 4e 	fmuld  %f8, %f14, %f8
    1e3c:	03 00 00 00 	sethi  %hi(0), %g1
    1e40:	99 a2 08 cc 	fsubd  %f8, %f12, %f12
    1e44:	82 18 7f d8 	xor  %g1, -40, %g1
    1e48:	82 05 c0 01 	add  %l7, %g1, %g1
    1e4c:	d1 18 40 00 	ldd  [ %g1 ], %f8
    1e50:	95 a2 89 48 	fmuld  %f10, %f8, %f10
    1e54:	95 a3 08 4a 	faddd  %f12, %f10, %f10
    1e58:	81 a0 08 ca 	fsubd  %f0, %f10, %f0
    1e5c:	81 c7 e0 08 	ret 
    1e60:	81 e8 00 00 	restore 

00001e64 <__GI_fabs>:
    1e64:	9c 03 bf a8 	add  %sp, -88, %sp
    1e68:	d0 3b a0 50 	std  %o0, [ %sp + 0x50 ]
    1e6c:	c1 1b a0 50 	ldd  [ %sp + 0x50 ], %f0
    1e70:	03 20 00 00 	sethi  %hi(0x80000000), %g1
    1e74:	82 2a 00 01 	andn  %o0, %g1, %g1
    1e78:	c2 23 a0 4c 	st  %g1, [ %sp + 0x4c ]
    1e7c:	c1 03 a0 4c 	ld  [ %sp + 0x4c ], %f0
    1e80:	81 c3 e0 08 	retl 
    1e84:	9c 23 bf a8 	sub  %sp, -88, %sp

00001e88 <__GI_floor>:
    1e88:	9d e3 bf 98 	save  %sp, -104, %sp
    1e8c:	f0 3f bf f8 	std  %i0, [ %fp + -8 ]
    1e90:	2f 0f ff f9 	sethi  %hi(0x3fffe400), %l7
    1e94:	40 00 14 59 	call  6ff8 <__sparc_get_pc_thunk.l7>
    1e98:	ae 05 e0 94 	add  %l7, 0x94, %l7	! 3fffe494 <__sparc_get_pc_thunk.l7+0x3fff749c>
    1e9c:	87 3e 20 14 	sra  %i0, 0x14, %g3
    1ea0:	86 08 e7 ff 	and  %g3, 0x7ff, %g3
    1ea4:	c1 1f bf f8 	ldd  [ %fp + -8 ], %f0
    1ea8:	84 00 fc 01 	add  %g3, -1023, %g2
    1eac:	82 10 00 18 	mov  %i0, %g1
    1eb0:	80 a0 a0 13 	cmp  %g2, 0x13
    1eb4:	14 80 00 37 	bg  1f90 <__GI_floor+0x108>
    1eb8:	88 10 00 19 	mov  %i1, %g4
    1ebc:	80 a0 a0 00 	cmp  %g2, 0
    1ec0:	16 80 00 19 	bge  1f24 <__GI_floor+0x9c>
    1ec4:	3b 00 03 ff 	sethi  %hi(0xffc00), %i5
    1ec8:	05 00 00 00 	sethi  %hi(0), %g2
    1ecc:	84 18 bf e0 	xor  %g2, -32, %g2
    1ed0:	84 05 c0 02 	add  %l7, %g2, %g2
    1ed4:	d1 18 80 00 	ldd  [ %g2 ], %f8
    1ed8:	05 00 00 00 	sethi  %hi(0), %g2
    1edc:	81 a0 08 48 	faddd  %f0, %f8, %f0
    1ee0:	84 18 bf 08 	xor  %g2, -248, %g2
    1ee4:	84 05 c0 02 	add  %l7, %g2, %g2
    1ee8:	d1 18 80 00 	ldd  [ %g2 ], %f8
    1eec:	81 a8 0a c8 	fcmped  %f0, %f8
    1ef0:	01 00 00 00 	nop 
    1ef4:	1d 80 00 54 	fbule  2044 <__GI_floor+0x1bc>
    1ef8:	01 00 00 00 	nop 
    1efc:	80 a6 20 00 	cmp  %i0, 0
    1f00:	36 80 00 4e 	bge,a   2038 <__GI_floor+0x1b0>
    1f04:	88 10 20 00 	clr  %g4
    1f08:	05 20 00 00 	sethi  %hi(0x80000000), %g2
    1f0c:	84 2e 00 02 	andn  %i0, %g2, %g2
    1f10:	80 90 80 19 	orcc  %g2, %i1, %g0
    1f14:	32 80 00 4b 	bne,a   2040 <__GI_floor+0x1b8>
    1f18:	88 10 20 00 	clr  %g4
    1f1c:	10 80 00 4b 	b  2048 <__GI_floor+0x1c0>
    1f20:	84 10 00 01 	mov  %g1, %g2
    1f24:	ba 17 63 ff 	or  %i5, 0x3ff, %i5
    1f28:	bb 3f 40 02 	sra  %i5, %g2, %i5
    1f2c:	86 0f 40 18 	and  %i5, %i0, %g3
    1f30:	80 90 c0 19 	orcc  %g3, %i1, %g0
    1f34:	02 80 00 1e 	be  1fac <__GI_floor+0x124>
    1f38:	07 00 00 00 	sethi  %hi(0), %g3
    1f3c:	86 18 ff e0 	xor  %g3, -32, %g3
    1f40:	86 05 c0 03 	add  %l7, %g3, %g3
    1f44:	d1 18 c0 00 	ldd  [ %g3 ], %f8
    1f48:	07 00 00 00 	sethi  %hi(0), %g3
    1f4c:	81 a0 08 48 	faddd  %f0, %f8, %f0
    1f50:	86 18 ff 08 	xor  %g3, -248, %g3
    1f54:	86 05 c0 03 	add  %l7, %g3, %g3
    1f58:	d1 18 c0 00 	ldd  [ %g3 ], %f8
    1f5c:	81 a8 0a c8 	fcmped  %f0, %f8
    1f60:	01 00 00 00 	nop 
    1f64:	1d 80 00 38 	fbule  2044 <__GI_floor+0x1bc>
    1f68:	01 00 00 00 	nop 
    1f6c:	80 a6 20 00 	cmp  %i0, 0
    1f70:	36 80 00 06 	bge,a   1f88 <__GI_floor+0x100>
    1f74:	82 28 40 1d 	andn  %g1, %i5, %g1
    1f78:	07 00 04 00 	sethi  %hi(0x100000), %g3
    1f7c:	85 38 c0 02 	sra  %g3, %g2, %g2
    1f80:	82 06 00 02 	add  %i0, %g2, %g1
    1f84:	82 28 40 1d 	andn  %g1, %i5, %g1
    1f88:	10 80 00 2f 	b  2044 <__GI_floor+0x1bc>
    1f8c:	88 10 20 00 	clr  %g4
    1f90:	80 a0 a0 33 	cmp  %g2, 0x33
    1f94:	04 80 00 08 	ble  1fb4 <__GI_floor+0x12c>
    1f98:	ba 00 fb ed 	add  %g3, -1043, %i5
    1f9c:	80 a0 a4 00 	cmp  %g2, 0x400
    1fa0:	12 80 00 2d 	bne  2054 <__GI_floor+0x1cc>
    1fa4:	01 00 00 00 	nop 
    1fa8:	81 a0 08 40 	faddd  %f0, %f0, %f0
    1fac:	81 c7 e0 08 	ret 
    1fb0:	81 e8 00 00 	restore 
    1fb4:	b8 10 3f ff 	mov  -1, %i4
    1fb8:	b9 37 00 1d 	srl  %i4, %i5, %i4
    1fbc:	80 8f 00 19 	btst  %i4, %i1
    1fc0:	02 bf ff fb 	be  1fac <__GI_floor+0x124>
    1fc4:	3b 00 00 00 	sethi  %hi(0), %i5
    1fc8:	ba 1f 7f e0 	xor  %i5, -32, %i5
    1fcc:	ba 05 c0 1d 	add  %l7, %i5, %i5
    1fd0:	d1 1f 40 00 	ldd  [ %i5 ], %f8
    1fd4:	3b 00 00 00 	sethi  %hi(0), %i5
    1fd8:	81 a0 08 48 	faddd  %f0, %f8, %f0
    1fdc:	ba 1f 7f 08 	xor  %i5, -248, %i5
    1fe0:	ba 05 c0 1d 	add  %l7, %i5, %i5
    1fe4:	d1 1f 40 00 	ldd  [ %i5 ], %f8
    1fe8:	81 a8 0a c8 	fcmped  %f0, %f8
    1fec:	01 00 00 00 	nop 
    1ff0:	1d 80 00 15 	fbule  2044 <__GI_floor+0x1bc>
    1ff4:	01 00 00 00 	nop 
    1ff8:	80 a6 20 00 	cmp  %i0, 0
    1ffc:	36 80 00 12 	bge,a   2044 <__GI_floor+0x1bc>
    2000:	88 29 00 1c 	andn  %g4, %i4, %g4
    2004:	80 a0 a0 14 	cmp  %g2, 0x14
    2008:	12 80 00 04 	bne  2018 <__GI_floor+0x190>
    200c:	84 10 24 33 	mov  0x433, %g2
    2010:	10 80 00 08 	b  2030 <__GI_floor+0x1a8>
    2014:	82 06 20 01 	add  %i0, 1, %g1
    2018:	86 20 80 03 	sub  %g2, %g3, %g3
    201c:	84 10 20 01 	mov  1, %g2
    2020:	87 28 80 03 	sll  %g2, %g3, %g3
    2024:	88 06 40 03 	add  %i1, %g3, %g4
    2028:	80 a1 00 19 	cmp  %g4, %i1
    202c:	82 40 00 18 	addx  %g0, %i0, %g1
    2030:	10 80 00 05 	b  2044 <__GI_floor+0x1bc>
    2034:	88 29 00 1c 	andn  %g4, %i4, %g4
    2038:	10 80 00 03 	b  2044 <__GI_floor+0x1bc>
    203c:	82 10 20 00 	clr  %g1
    2040:	03 2f fc 00 	sethi  %hi(0xbff00000), %g1
    2044:	84 10 00 01 	mov  %g1, %g2
    2048:	86 10 00 04 	mov  %g4, %g3
    204c:	c4 3f bf f8 	std  %g2, [ %fp + -8 ]
    2050:	c1 1f bf f8 	ldd  [ %fp + -8 ], %f0
    2054:	81 c7 e0 08 	ret 
    2058:	81 e8 00 00 	restore 

0000205c <__GI_scalbln>:
    205c:	9d e3 bf 88 	save  %sp, -120, %sp
    2060:	f0 3f bf f0 	std  %i0, [ %fp + -16 ]
    2064:	2f 0f ff f8 	sethi  %hi(0x3fffe000), %l7
    2068:	40 00 13 e4 	call  6ff8 <__sparc_get_pc_thunk.l7>
    206c:	ae 05 e2 c0 	add  %l7, 0x2c0, %l7	! 3fffe2c0 <__sparc_get_pc_thunk.l7+0x3fff72c8>
    2070:	09 1f fc 00 	sethi  %hi(0x7ff00000), %g4
    2074:	82 0e 00 04 	and  %i0, %g4, %g1
    2078:	c1 1f bf f0 	ldd  [ %fp + -16 ], %f0
    207c:	83 38 60 14 	sra  %g1, 0x14, %g1
    2080:	80 a0 60 00 	cmp  %g1, 0
    2084:	12 80 00 12 	bne  20cc <__GI_scalbln+0x70>
    2088:	84 10 00 18 	mov  %i0, %g2
    208c:	03 20 00 00 	sethi  %hi(0x80000000), %g1
    2090:	ba 2e 00 01 	andn  %i0, %g1, %i5
    2094:	80 97 40 19 	orcc  %i5, %i1, %g0
    2098:	02 80 00 11 	be  20dc <__GI_scalbln+0x80>
    209c:	05 00 00 00 	sethi  %hi(0), %g2
    20a0:	84 18 bf e8 	xor  %g2, -24, %g2
    20a4:	84 05 c0 02 	add  %l7, %g2, %g2
    20a8:	d1 18 80 00 	ldd  [ %g2 ], %f8
    20ac:	81 a0 09 48 	fmuld  %f0, %f8, %f0
    20b0:	c1 3f bf f0 	std  %f0, [ %fp + -16 ]
    20b4:	f8 1f bf f0 	ldd  [ %fp + -16 ], %i4
    20b8:	84 10 00 1c 	mov  %i4, %g2
    20bc:	82 08 80 04 	and  %g2, %g4, %g1
    20c0:	83 38 60 14 	sra  %g1, 0x14, %g1
    20c4:	10 80 00 08 	b  20e4 <__GI_scalbln+0x88>
    20c8:	82 00 7f ca 	add  %g1, -54, %g1
    20cc:	80 a0 67 ff 	cmp  %g1, 0x7ff
    20d0:	32 80 00 06 	bne,a   20e8 <__GI_scalbln+0x8c>
    20d4:	82 00 40 1a 	add  %g1, %i2, %g1
    20d8:	81 a0 08 40 	faddd  %f0, %f0, %f0
    20dc:	81 c7 e0 08 	ret 
    20e0:	81 e8 00 00 	restore 
    20e4:	82 00 40 1a 	add  %g1, %i2, %g1
    20e8:	80 a0 67 fe 	cmp  %g1, 0x7fe
    20ec:	04 80 00 04 	ble  20fc <__GI_scalbln+0xa0>
    20f0:	07 3f ff cf 	sethi  %hi(0xffff3c00), %g3
    20f4:	10 80 00 1a 	b  215c <__GI_scalbln+0x100>
    20f8:	03 00 00 00 	sethi  %hi(0), %g1
    20fc:	86 10 e0 b0 	or  %g3, 0xb0, %g3
    2100:	80 a6 80 03 	cmp  %i2, %g3
    2104:	16 80 00 04 	bge  2114 <__GI_scalbln+0xb8>
    2108:	80 a0 60 00 	cmp  %g1, 0
    210c:	10 80 00 17 	b  2168 <__GI_scalbln+0x10c>
    2110:	03 00 00 00 	sethi  %hi(0), %g1
    2114:	04 80 00 09 	ble  2138 <__GI_scalbln+0xdc>
    2118:	07 1f fc 00 	sethi  %hi(0x7ff00000), %g3
    211c:	83 28 60 14 	sll  %g1, 0x14, %g1
    2120:	84 28 80 03 	andn  %g2, %g3, %g2
    2124:	84 10 40 02 	or  %g1, %g2, %g2
    2128:	c4 27 bf ec 	st  %g2, [ %fp + -20 ]
    212c:	c1 07 bf ec 	ld  [ %fp + -20 ], %f0
    2130:	81 c7 e0 08 	ret 
    2134:	81 e8 00 00 	restore 
    2138:	80 a0 7f cb 	cmp  %g1, -53
    213c:	16 80 00 15 	bge  2190 <__GI_scalbln+0x134>
    2140:	82 00 60 36 	add  %g1, 0x36, %g1
    2144:	03 00 00 30 	sethi  %hi(0xc000), %g1
    2148:	82 10 63 50 	or  %g1, 0x350, %g1	! c350 <__sparc_get_pc_thunk.l7+0x5358>
    214c:	80 a6 80 01 	cmp  %i2, %g1
    2150:	24 80 00 06 	ble,a   2168 <__GI_scalbln+0x10c>
    2154:	03 00 00 00 	sethi  %hi(0), %g1
    2158:	03 00 00 00 	sethi  %hi(0), %g1
    215c:	82 18 7f e0 	xor  %g1, -32, %g1
    2160:	10 80 00 04 	b  2170 <__GI_scalbln+0x114>
    2164:	82 05 c0 01 	add  %l7, %g1, %g1
    2168:	82 18 7f f0 	xor  %g1, -16, %g1
    216c:	82 05 c0 01 	add  %l7, %g1, %g1
    2170:	d1 18 40 00 	ldd  [ %g1 ], %f8
    2174:	c1 3f bf f0 	std  %f0, [ %fp + -16 ]
    2178:	d1 3f bf f8 	std  %f8, [ %fp + -8 ]
    217c:	d0 18 40 00 	ldd  [ %g1 ], %o0
    2180:	40 00 00 11 	call  21c4 <__GI_copysign>
    2184:	d4 1f bf f0 	ldd  [ %fp + -16 ], %o2
    2188:	10 80 00 0c 	b  21b8 <__GI_scalbln+0x15c>
    218c:	d1 1f bf f8 	ldd  [ %fp + -8 ], %f8
    2190:	83 28 60 14 	sll  %g1, 0x14, %g1
    2194:	07 1f fc 00 	sethi  %hi(0x7ff00000), %g3
    2198:	84 28 80 03 	andn  %g2, %g3, %g2
    219c:	84 10 40 02 	or  %g1, %g2, %g2
    21a0:	03 00 00 00 	sethi  %hi(0), %g1
    21a4:	c4 27 bf ec 	st  %g2, [ %fp + -20 ]
    21a8:	82 18 7f f8 	xor  %g1, -8, %g1
    21ac:	c1 07 bf ec 	ld  [ %fp + -20 ], %f0
    21b0:	82 05 c0 01 	add  %l7, %g1, %g1
    21b4:	d1 18 40 00 	ldd  [ %g1 ], %f8
    21b8:	81 a0 09 48 	fmuld  %f0, %f8, %f0
    21bc:	81 c7 e0 08 	ret 
    21c0:	81 e8 00 00 	restore 

000021c4 <__GI_copysign>:
    21c4:	9c 03 bf a8 	add  %sp, -88, %sp
    21c8:	d0 3b a0 50 	std  %o0, [ %sp + 0x50 ]
    21cc:	c1 1b a0 50 	ldd  [ %sp + 0x50 ], %f0
    21d0:	03 20 00 00 	sethi  %hi(0x80000000), %g1
    21d4:	94 0a 80 01 	and  %o2, %g1, %o2
    21d8:	84 2a 00 01 	andn  %o0, %g1, %g2
    21dc:	84 12 80 02 	or  %o2, %g2, %g2
    21e0:	c4 23 a0 4c 	st  %g2, [ %sp + 0x4c ]
    21e4:	c1 03 a0 4c 	ld  [ %sp + 0x4c ], %f0
    21e8:	81 c3 e0 08 	retl 
    21ec:	9c 23 bf a8 	sub  %sp, -88, %sp
    21f0:	80 8a 60 01 	btst  1, %o1
    21f4:	02 80 00 08 	be  2214 <__GI_copysign+0x50>
    21f8:	80 8a 60 02 	btst  2, %o1
    21fc:	c4 0a 7f ff 	ldub  [ %o1 + -1 ], %g2
    2200:	92 22 60 01 	dec  %o1
    2204:	c4 2a 3f ff 	stb  %g2, [ %o0 + -1 ]
    2208:	94 22 a0 01 	dec  %o2
    220c:	02 80 00 1a 	be  2274 <__GI_memmove+0x3c>
    2210:	90 22 20 01 	dec  %o0
    2214:	c4 12 7f fe 	lduh  [ %o1 + -2 ], %g2
    2218:	92 22 60 02 	sub  %o1, 2, %o1
    221c:	c4 32 3f fe 	sth  %g2, [ %o0 + -2 ]
    2220:	94 22 a0 02 	sub  %o2, 2, %o2
    2224:	10 80 00 14 	b  2274 <__GI_memmove+0x3c>
    2228:	90 22 20 02 	sub  %o0, 2, %o0

0000222c <bcopy>:
    222c:	96 10 00 08 	mov  %o0, %o3
    2230:	90 10 00 09 	mov  %o1, %o0
    2234:	92 10 00 0b 	mov  %o3, %o1

00002238 <__GI_memmove>:
    2238:	80 a2 00 09 	cmp  %o0, %o1
    223c:	d0 23 a0 40 	st  %o0, [ %sp + 0x40 ]
    2240:	08 80 01 79 	bleu  2824 <__GI_memcpy+0x8>
    2244:	98 22 00 09 	sub  %o0, %o1, %o4
    2248:	96 02 40 0a 	add  %o1, %o2, %o3
    224c:	80 a2 c0 08 	cmp  %o3, %o0
    2250:	08 80 01 76 	bleu  2828 <__GI_memcpy+0xc>
    2254:	9a 8b 20 03 	andcc  %o4, 3, %o5
    2258:	92 02 40 0a 	add  %o1, %o2, %o1
    225c:	90 02 00 0a 	add  %o0, %o2, %o0
    2260:	12 80 00 f9 	bne  2644 <__GI_memmove+0x40c>
    2264:	80 a2 a0 0f 	cmp  %o2, 0xf
    2268:	08 80 00 eb 	bleu  2614 <__GI_memmove+0x3dc>
    226c:	80 8a 60 03 	btst  3, %o1
    2270:	12 bf ff e0 	bne  21f0 <__GI_copysign+0x2c>
    2274:	80 8a 60 04 	btst  4, %o1
    2278:	02 80 00 07 	be  2294 <__GI_memmove+0x5c>
    227c:	82 10 00 0a 	mov  %o2, %g1
    2280:	d8 02 7f fc 	ld  [ %o1 + -4 ], %o4
    2284:	82 20 60 04 	sub  %g1, 4, %g1
    2288:	d8 22 3f fc 	st  %o4, [ %o0 + -4 ]
    228c:	92 22 60 04 	sub  %o1, 4, %o1
    2290:	90 22 20 04 	sub  %o0, 4, %o0
    2294:	8c 88 7f 80 	andcc  %g1, -128, %g6
    2298:	02 80 00 37 	be  2374 <__GI_memmove+0x13c>
    229c:	80 8a 20 04 	btst  4, %o0
    22a0:	02 80 00 84 	be  24b0 <__GI_memmove+0x278>
    22a4:	d4 1a 7f e0 	ldd  [ %o1 + -32 ], %o2
    22a8:	d8 1a 7f e8 	ldd  [ %o1 + -24 ], %o4
    22ac:	c4 1a 7f f0 	ldd  [ %o1 + -16 ], %g2
    22b0:	c8 1a 7f f8 	ldd  [ %o1 + -8 ], %g4
    22b4:	d4 22 3f e0 	st  %o2, [ %o0 + -32 ]
    22b8:	d6 22 3f e4 	st  %o3, [ %o0 + -28 ]
    22bc:	d8 22 3f e8 	st  %o4, [ %o0 + -24 ]
    22c0:	da 22 3f ec 	st  %o5, [ %o0 + -20 ]
    22c4:	c4 22 3f f0 	st  %g2, [ %o0 + -16 ]
    22c8:	c6 22 3f f4 	st  %g3, [ %o0 + -12 ]
    22cc:	c8 22 3f f8 	st  %g4, [ %o0 + -8 ]
    22d0:	ca 22 3f fc 	st  %g5, [ %o0 + -4 ]
    22d4:	d4 1a 7f c0 	ldd  [ %o1 + -64 ], %o2
    22d8:	d8 1a 7f c8 	ldd  [ %o1 + -56 ], %o4
    22dc:	c4 1a 7f d0 	ldd  [ %o1 + -48 ], %g2
    22e0:	c8 1a 7f d8 	ldd  [ %o1 + -40 ], %g4
    22e4:	d4 22 3f c0 	st  %o2, [ %o0 + -64 ]
    22e8:	d6 22 3f c4 	st  %o3, [ %o0 + -60 ]
    22ec:	d8 22 3f c8 	st  %o4, [ %o0 + -56 ]
    22f0:	da 22 3f cc 	st  %o5, [ %o0 + -52 ]
    22f4:	c4 22 3f d0 	st  %g2, [ %o0 + -48 ]
    22f8:	c6 22 3f d4 	st  %g3, [ %o0 + -44 ]
    22fc:	c8 22 3f d8 	st  %g4, [ %o0 + -40 ]
    2300:	ca 22 3f dc 	st  %g5, [ %o0 + -36 ]
    2304:	d4 1a 7f a0 	ldd  [ %o1 + -96 ], %o2
    2308:	d8 1a 7f a8 	ldd  [ %o1 + -88 ], %o4
    230c:	c4 1a 7f b0 	ldd  [ %o1 + -80 ], %g2
    2310:	c8 1a 7f b8 	ldd  [ %o1 + -72 ], %g4
    2314:	d4 22 3f a0 	st  %o2, [ %o0 + -96 ]
    2318:	d6 22 3f a4 	st  %o3, [ %o0 + -92 ]
    231c:	d8 22 3f a8 	st  %o4, [ %o0 + -88 ]
    2320:	da 22 3f ac 	st  %o5, [ %o0 + -84 ]
    2324:	c4 22 3f b0 	st  %g2, [ %o0 + -80 ]
    2328:	c6 22 3f b4 	st  %g3, [ %o0 + -76 ]
    232c:	c8 22 3f b8 	st  %g4, [ %o0 + -72 ]
    2330:	ca 22 3f bc 	st  %g5, [ %o0 + -68 ]
    2334:	d4 1a 7f 80 	ldd  [ %o1 + -128 ], %o2
    2338:	d8 1a 7f 88 	ldd  [ %o1 + -120 ], %o4
    233c:	c4 1a 7f 90 	ldd  [ %o1 + -112 ], %g2
    2340:	c8 1a 7f 98 	ldd  [ %o1 + -104 ], %g4
    2344:	d4 22 3f 80 	st  %o2, [ %o0 + -128 ]
    2348:	d6 22 3f 84 	st  %o3, [ %o0 + -124 ]
    234c:	d8 22 3f 88 	st  %o4, [ %o0 + -120 ]
    2350:	da 22 3f 8c 	st  %o5, [ %o0 + -116 ]
    2354:	c4 22 3f 90 	st  %g2, [ %o0 + -112 ]
    2358:	c6 22 3f 94 	st  %g3, [ %o0 + -108 ]
    235c:	c8 22 3f 98 	st  %g4, [ %o0 + -104 ]
    2360:	ca 22 3f 9c 	st  %g5, [ %o0 + -100 ]
    2364:	8c a1 a0 80 	subcc  %g6, 0x80, %g6
    2368:	92 22 60 80 	sub  %o1, 0x80, %o1
    236c:	12 bf ff ce 	bne  22a4 <__GI_memmove+0x6c>
    2370:	90 22 20 80 	sub  %o0, 0x80, %o0
    2374:	8c 88 60 70 	andcc  %g1, 0x70, %g6
    2378:	02 80 00 34 	be  2448 <__GI_memmove+0x210>
    237c:	80 88 60 08 	btst  8, %g1
    2380:	99 31 a0 01 	srl  %g6, 1, %o4
    2384:	84 10 00 0f 	mov  %o7, %g2
    2388:	98 01 80 0c 	add  %g6, %o4, %o4
    238c:	40 00 05 3d 	call  3880 <__GI_memcpy+0x1064>
    2390:	92 22 40 06 	sub  %o1, %g6, %o1
    2394:	9e 10 00 02 	mov  %g2, %o7
    2398:	81 c3 60 bc 	jmp  %o5 + 0xbc
    239c:	90 22 00 06 	sub  %o0, %g6, %o0
    23a0:	c4 1a 60 60 	ldd  [ %o1 + 0x60 ], %g2
    23a4:	c8 1a 60 68 	ldd  [ %o1 + 0x68 ], %g4
    23a8:	c4 22 20 60 	st  %g2, [ %o0 + 0x60 ]
    23ac:	c6 22 20 64 	st  %g3, [ %o0 + 0x64 ]
    23b0:	c8 22 20 68 	st  %g4, [ %o0 + 0x68 ]
    23b4:	ca 22 20 6c 	st  %g5, [ %o0 + 0x6c ]
    23b8:	c4 1a 60 50 	ldd  [ %o1 + 0x50 ], %g2
    23bc:	c8 1a 60 58 	ldd  [ %o1 + 0x58 ], %g4
    23c0:	c4 22 20 50 	st  %g2, [ %o0 + 0x50 ]
    23c4:	c6 22 20 54 	st  %g3, [ %o0 + 0x54 ]
    23c8:	c8 22 20 58 	st  %g4, [ %o0 + 0x58 ]
    23cc:	ca 22 20 5c 	st  %g5, [ %o0 + 0x5c ]
    23d0:	c4 1a 60 40 	ldd  [ %o1 + 0x40 ], %g2
    23d4:	c8 1a 60 48 	ldd  [ %o1 + 0x48 ], %g4
    23d8:	c4 22 20 40 	st  %g2, [ %o0 + 0x40 ]
    23dc:	c6 22 20 44 	st  %g3, [ %o0 + 0x44 ]
    23e0:	c8 22 20 48 	st  %g4, [ %o0 + 0x48 ]
    23e4:	ca 22 20 4c 	st  %g5, [ %o0 + 0x4c ]
    23e8:	c4 1a 60 30 	ldd  [ %o1 + 0x30 ], %g2
    23ec:	c8 1a 60 38 	ldd  [ %o1 + 0x38 ], %g4
    23f0:	c4 22 20 30 	st  %g2, [ %o0 + 0x30 ]
    23f4:	c6 22 20 34 	st  %g3, [ %o0 + 0x34 ]
    23f8:	c8 22 20 38 	st  %g4, [ %o0 + 0x38 ]
    23fc:	ca 22 20 3c 	st  %g5, [ %o0 + 0x3c ]
    2400:	c4 1a 60 20 	ldd  [ %o1 + 0x20 ], %g2
    2404:	c8 1a 60 28 	ldd  [ %o1 + 0x28 ], %g4
    2408:	c4 22 20 20 	st  %g2, [ %o0 + 0x20 ]
    240c:	c6 22 20 24 	st  %g3, [ %o0 + 0x24 ]
    2410:	c8 22 20 28 	st  %g4, [ %o0 + 0x28 ]
    2414:	ca 22 20 2c 	st  %g5, [ %o0 + 0x2c ]
    2418:	c4 1a 60 10 	ldd  [ %o1 + 0x10 ], %g2
    241c:	c8 1a 60 18 	ldd  [ %o1 + 0x18 ], %g4
    2420:	c4 22 20 10 	st  %g2, [ %o0 + 0x10 ]
    2424:	c6 22 20 14 	st  %g3, [ %o0 + 0x14 ]
    2428:	c8 22 20 18 	st  %g4, [ %o0 + 0x18 ]
    242c:	ca 22 20 1c 	st  %g5, [ %o0 + 0x1c ]
    2430:	c4 1a 60 00 	ldd  [ %o1 ], %g2
    2434:	c8 1a 60 08 	ldd  [ %o1 + 8 ], %g4
    2438:	c4 22 20 00 	st  %g2, [ %o0 ]
    243c:	c6 22 20 04 	st  %g3, [ %o0 + 4 ]
    2440:	c8 22 20 08 	st  %g4, [ %o0 + 8 ]
    2444:	ca 22 20 0c 	st  %g5, [ %o0 + 0xc ]
    2448:	02 80 00 07 	be  2464 <__GI_memmove+0x22c>
    244c:	80 88 60 04 	btst  4, %g1
    2450:	c4 1a 7f f8 	ldd  [ %o1 + -8 ], %g2
    2454:	90 22 20 08 	sub  %o0, 8, %o0
    2458:	92 22 60 08 	sub  %o1, 8, %o1
    245c:	c4 22 00 00 	st  %g2, [ %o0 ]
    2460:	c6 22 20 04 	st  %g3, [ %o0 + 4 ]
    2464:	02 80 00 06 	be  247c <__GI_memmove+0x244>
    2468:	80 88 60 02 	btst  2, %g1
    246c:	c4 02 7f fc 	ld  [ %o1 + -4 ], %g2
    2470:	92 22 60 04 	sub  %o1, 4, %o1
    2474:	c4 22 3f fc 	st  %g2, [ %o0 + -4 ]
    2478:	90 22 20 04 	sub  %o0, 4, %o0
    247c:	02 80 00 06 	be  2494 <__GI_memmove+0x25c>
    2480:	80 88 60 01 	btst  1, %g1
    2484:	c4 12 7f fe 	lduh  [ %o1 + -2 ], %g2
    2488:	92 22 60 02 	sub  %o1, 2, %o1
    248c:	c4 32 3f fe 	sth  %g2, [ %o0 + -2 ]
    2490:	90 22 20 02 	sub  %o0, 2, %o0
    2494:	02 80 00 04 	be  24a4 <__GI_memmove+0x26c>
    2498:	01 00 00 00 	nop 
    249c:	c4 0a 7f ff 	ldub  [ %o1 + -1 ], %g2
    24a0:	c4 2a 3f ff 	stb  %g2, [ %o0 + -1 ]
    24a4:	81 c3 e0 08 	retl 
    24a8:	d0 03 a0 40 	ld  [ %sp + 0x40 ], %o0
    24ac:	d4 1a 7f e0 	ldd  [ %o1 + -32 ], %o2
    24b0:	d8 1a 7f e8 	ldd  [ %o1 + -24 ], %o4
    24b4:	c4 1a 7f f0 	ldd  [ %o1 + -16 ], %g2
    24b8:	c8 1a 7f f8 	ldd  [ %o1 + -8 ], %g4
    24bc:	d4 3a 3f e0 	std  %o2, [ %o0 + -32 ]
    24c0:	d8 3a 3f e8 	std  %o4, [ %o0 + -24 ]
    24c4:	c4 3a 3f f0 	std  %g2, [ %o0 + -16 ]
    24c8:	c8 3a 3f f8 	std  %g4, [ %o0 + -8 ]
    24cc:	d4 1a 7f c0 	ldd  [ %o1 + -64 ], %o2
    24d0:	d8 1a 7f c8 	ldd  [ %o1 + -56 ], %o4
    24d4:	c4 1a 7f d0 	ldd  [ %o1 + -48 ], %g2
    24d8:	c8 1a 7f d8 	ldd  [ %o1 + -40 ], %g4
    24dc:	d4 3a 3f c0 	std  %o2, [ %o0 + -64 ]
    24e0:	d8 3a 3f c8 	std  %o4, [ %o0 + -56 ]
    24e4:	c4 3a 3f d0 	std  %g2, [ %o0 + -48 ]
    24e8:	c8 3a 3f d8 	std  %g4, [ %o0 + -40 ]
    24ec:	d4 1a 7f a0 	ldd  [ %o1 + -96 ], %o2
    24f0:	d8 1a 7f a8 	ldd  [ %o1 + -88 ], %o4
    24f4:	c4 1a 7f b0 	ldd  [ %o1 + -80 ], %g2
    24f8:	c8 1a 7f b8 	ldd  [ %o1 + -72 ], %g4
    24fc:	d4 3a 3f a0 	std  %o2, [ %o0 + -96 ]
    2500:	d8 3a 3f a8 	std  %o4, [ %o0 + -88 ]
    2504:	c4 3a 3f b0 	std  %g2, [ %o0 + -80 ]
    2508:	c8 3a 3f b8 	std  %g4, [ %o0 + -72 ]
    250c:	d4 1a 7f 80 	ldd  [ %o1 + -128 ], %o2
    2510:	d8 1a 7f 88 	ldd  [ %o1 + -120 ], %o4
    2514:	c4 1a 7f 90 	ldd  [ %o1 + -112 ], %g2
    2518:	c8 1a 7f 98 	ldd  [ %o1 + -104 ], %g4
    251c:	d4 3a 3f 80 	std  %o2, [ %o0 + -128 ]
    2520:	d8 3a 3f 88 	std  %o4, [ %o0 + -120 ]
    2524:	c4 3a 3f 90 	std  %g2, [ %o0 + -112 ]
    2528:	c8 3a 3f 98 	std  %g4, [ %o0 + -104 ]
    252c:	8c a1 a0 80 	subcc  %g6, 0x80, %g6
    2530:	92 22 60 80 	sub  %o1, 0x80, %o1
    2534:	12 bf ff de 	bne  24ac <__GI_memmove+0x274>
    2538:	90 22 20 80 	sub  %o0, 0x80, %o0
    253c:	8c 88 60 70 	andcc  %g1, 0x70, %g6
    2540:	02 bf ff c2 	be  2448 <__GI_memmove+0x210>
    2544:	80 88 60 08 	btst  8, %g1
    2548:	99 31 a0 01 	srl  %g6, 1, %o4
    254c:	84 10 00 0f 	mov  %o7, %g2
    2550:	98 01 80 0c 	add  %g6, %o4, %o4
    2554:	40 00 04 cb 	call  3880 <__GI_memcpy+0x1064>
    2558:	92 22 40 06 	sub  %o1, %g6, %o1
    255c:	9e 10 00 02 	mov  %g2, %o7
    2560:	81 c3 7e f4 	jmp  %o5 + -268
    2564:	90 22 00 06 	sub  %o0, %g6, %o0
    2568:	96 0a a0 0e 	and  %o2, 0xe, %o3
    256c:	84 10 00 0f 	mov  %o7, %g2
    2570:	99 2a e0 03 	sll  %o3, 3, %o4
    2574:	90 22 00 0b 	sub  %o0, %o3, %o0
    2578:	40 00 04 c2 	call  3880 <__GI_memcpy+0x1064>
    257c:	92 22 40 0b 	sub  %o1, %o3, %o1
    2580:	9e 10 00 02 	mov  %g2, %o7
    2584:	81 c3 60 84 	jmp  %o5 + 0x84
    2588:	80 8a a0 01 	btst  1, %o2
    258c:	c4 0a 60 0c 	ldub  [ %o1 + 0xc ], %g2
    2590:	c6 0a 60 0d 	ldub  [ %o1 + 0xd ], %g3
    2594:	c4 2a 20 0c 	stb  %g2, [ %o0 + 0xc ]
    2598:	c6 2a 20 0d 	stb  %g3, [ %o0 + 0xd ]
    259c:	c4 0a 60 0a 	ldub  [ %o1 + 0xa ], %g2
    25a0:	c6 0a 60 0b 	ldub  [ %o1 + 0xb ], %g3
    25a4:	c4 2a 20 0a 	stb  %g2, [ %o0 + 0xa ]
    25a8:	c6 2a 20 0b 	stb  %g3, [ %o0 + 0xb ]
    25ac:	c4 0a 60 08 	ldub  [ %o1 + 8 ], %g2
    25b0:	c6 0a 60 09 	ldub  [ %o1 + 9 ], %g3
    25b4:	c4 2a 20 08 	stb  %g2, [ %o0 + 8 ]
    25b8:	c6 2a 20 09 	stb  %g3, [ %o0 + 9 ]
    25bc:	c4 0a 60 06 	ldub  [ %o1 + 6 ], %g2
    25c0:	c6 0a 60 07 	ldub  [ %o1 + 7 ], %g3
    25c4:	c4 2a 20 06 	stb  %g2, [ %o0 + 6 ]
    25c8:	c6 2a 20 07 	stb  %g3, [ %o0 + 7 ]
    25cc:	c4 0a 60 04 	ldub  [ %o1 + 4 ], %g2
    25d0:	c6 0a 60 05 	ldub  [ %o1 + 5 ], %g3
    25d4:	c4 2a 20 04 	stb  %g2, [ %o0 + 4 ]
    25d8:	c6 2a 20 05 	stb  %g3, [ %o0 + 5 ]
    25dc:	c4 0a 60 02 	ldub  [ %o1 + 2 ], %g2
    25e0:	c6 0a 60 03 	ldub  [ %o1 + 3 ], %g3
    25e4:	c4 2a 20 02 	stb  %g2, [ %o0 + 2 ]
    25e8:	c6 2a 20 03 	stb  %g3, [ %o0 + 3 ]
    25ec:	c4 0a 60 00 	ldub  [ %o1 ], %g2
    25f0:	c6 0a 60 01 	ldub  [ %o1 + 1 ], %g3
    25f4:	c4 2a 20 00 	stb  %g2, [ %o0 ]
    25f8:	c6 2a 20 01 	stb  %g3, [ %o0 + 1 ]
    25fc:	02 80 00 04 	be  260c <__GI_memmove+0x3d4>
    2600:	01 00 00 00 	nop 
    2604:	c4 0a 7f ff 	ldub  [ %o1 + -1 ], %g2
    2608:	c4 2a 3f ff 	stb  %g2, [ %o0 + -1 ]
    260c:	81 c3 e0 08 	retl 
    2610:	d0 03 a0 40 	ld  [ %sp + 0x40 ], %o0
    2614:	12 bf ff d5 	bne  2568 <__GI_memmove+0x330>
    2618:	80 8a a0 08 	btst  8, %o2
    261c:	02 80 00 08 	be  263c <__GI_memmove+0x404>
    2620:	80 8a a0 04 	btst  4, %o2
    2624:	c4 02 7f f8 	ld  [ %o1 + -8 ], %g2
    2628:	c6 02 7f fc 	ld  [ %o1 + -4 ], %g3
    262c:	92 22 60 08 	sub  %o1, 8, %o1
    2630:	c4 22 3f f8 	st  %g2, [ %o0 + -8 ]
    2634:	c6 22 3f fc 	st  %g3, [ %o0 + -4 ]
    2638:	90 22 20 08 	sub  %o0, 8, %o0
    263c:	10 bf ff 8a 	b  2464 <__GI_memmove+0x22c>
    2640:	82 10 00 0a 	mov  %o2, %g1
    2644:	80 a2 a0 0f 	cmp  %o2, 0xf
    2648:	08 bf ff c8 	bleu  2568 <__GI_memmove+0x330>
    264c:	80 8a 20 03 	btst  3, %o0
    2650:	02 80 00 11 	be  2694 <__GI_memmove+0x45c>
    2654:	80 8a 20 01 	btst  1, %o0
    2658:	02 80 00 08 	be  2678 <__GI_memmove+0x440>
    265c:	80 8a 20 02 	btst  2, %o0
    2660:	ca 0a 7f ff 	ldub  [ %o1 + -1 ], %g5
    2664:	92 22 60 01 	dec  %o1
    2668:	ca 2a 3f ff 	stb  %g5, [ %o0 + -1 ]
    266c:	90 22 20 01 	dec  %o0
    2670:	02 80 00 09 	be  2694 <__GI_memmove+0x45c>
    2674:	94 22 a0 01 	dec  %o2
    2678:	ca 0a 7f ff 	ldub  [ %o1 + -1 ], %g5
    267c:	92 22 60 02 	sub  %o1, 2, %o1
    2680:	ca 2a 3f ff 	stb  %g5, [ %o0 + -1 ]
    2684:	90 22 20 02 	sub  %o0, 2, %o0
    2688:	ca 0a 40 00 	ldub  [ %o1 ], %g5
    268c:	94 22 a0 02 	sub  %o2, 2, %o2
    2690:	ca 2a 00 00 	stb  %g5, [ %o0 ]
    2694:	84 0a 60 03 	and  %o1, 3, %g2
    2698:	92 0a 7f fc 	and  %o1, -4, %o1
    269c:	86 0a a0 0c 	and  %o2, 0xc, %g3
    26a0:	92 02 60 04 	add  %o1, 4, %o1
    26a4:	80 a0 e0 04 	cmp  %g3, 4
    26a8:	89 28 a0 03 	sll  %g2, 3, %g4
    26ac:	84 10 20 20 	mov  0x20, %g2
    26b0:	02 80 00 18 	be  2710 <__GI_memmove+0x4d8>
    26b4:	8c 20 80 04 	sub  %g2, %g4, %g6
    26b8:	0a 80 00 10 	bcs  26f8 <__GI_memmove+0x4c0>
    26bc:	80 a0 e0 08 	cmp  %g3, 8
    26c0:	02 80 00 08 	be  26e0 <__GI_memmove+0x4a8>
    26c4:	87 32 a0 02 	srl  %o2, 2, %g3
    26c8:	d6 02 7f fc 	ld  [ %o1 + -4 ], %o3
    26cc:	90 02 3f f8 	add  %o0, -8, %o0
    26d0:	d8 02 7f f8 	ld  [ %o1 + -8 ], %o4
    26d4:	92 02 7f f0 	add  %o1, -16, %o1
    26d8:	10 80 00 1e 	b  2750 <__GI_memmove+0x518>
    26dc:	86 00 e0 01 	inc  %g3
    26e0:	d8 02 7f fc 	ld  [ %o1 + -4 ], %o4
    26e4:	90 02 3f fc 	add  %o0, -4, %o0
    26e8:	c2 02 7f f8 	ld  [ %o1 + -8 ], %g1
    26ec:	92 02 7f f4 	add  %o1, -12, %o1
    26f0:	10 80 00 1d 	b  2764 <__GI_memmove+0x52c>
    26f4:	86 00 e0 02 	add  %g3, 2, %g3
    26f8:	da 02 7f fc 	ld  [ %o1 + -4 ], %o5
    26fc:	90 02 3f f4 	add  %o0, -12, %o0
    2700:	d6 02 7f f8 	ld  [ %o1 + -8 ], %o3
    2704:	92 02 7f ec 	add  %o1, -20, %o1
    2708:	10 80 00 0d 	b  273c <__GI_memmove+0x504>
    270c:	87 32 a0 02 	srl  %o2, 2, %g3
    2710:	c2 02 7f fc 	ld  [ %o1 + -4 ], %g1
    2714:	87 32 a0 02 	srl  %o2, 2, %g3
    2718:	da 02 7f f8 	ld  [ %o1 + -8 ], %o5
    271c:	92 02 7f e8 	add  %o1, -24, %o1
    2720:	90 02 3f f0 	add  %o0, -16, %o0
    2724:	86 00 ff ff 	add  %g3, -1, %g3
    2728:	d6 02 60 0c 	ld  [ %o1 + 0xc ], %o3
    272c:	85 2b 40 04 	sll  %o5, %g4, %g2
    2730:	8b 30 40 06 	srl  %g1, %g6, %g5
    2734:	84 10 80 05 	or  %g2, %g5, %g2
    2738:	c4 22 20 0c 	st  %g2, [ %o0 + 0xc ]
    273c:	d8 02 60 08 	ld  [ %o1 + 8 ], %o4
    2740:	85 2a c0 04 	sll  %o3, %g4, %g2
    2744:	8b 33 40 06 	srl  %o5, %g6, %g5
    2748:	84 10 80 05 	or  %g2, %g5, %g2
    274c:	c4 22 20 08 	st  %g2, [ %o0 + 8 ]
    2750:	c2 02 60 04 	ld  [ %o1 + 4 ], %g1
    2754:	85 2b 00 04 	sll  %o4, %g4, %g2
    2758:	8b 32 c0 06 	srl  %o3, %g6, %g5
    275c:	84 10 80 05 	or  %g2, %g5, %g2
    2760:	c4 22 20 04 	st  %g2, [ %o0 + 4 ]
    2764:	da 02 40 00 	ld  [ %o1 ], %o5
    2768:	85 28 40 04 	sll  %g1, %g4, %g2
    276c:	8b 33 00 06 	srl  %o4, %g6, %g5
    2770:	86 80 ff fc 	addcc  %g3, -4, %g3
    2774:	84 10 80 05 	or  %g2, %g5, %g2
    2778:	92 02 7f f0 	add  %o1, -16, %o1
    277c:	c4 22 00 00 	st  %g2, [ %o0 ]
    2780:	90 02 3f f0 	add  %o0, -16, %o0
    2784:	32 bf ff ea 	bne,a   272c <__GI_memmove+0x4f4>
    2788:	d6 02 60 0c 	ld  [ %o1 + 0xc ], %o3
    278c:	85 2b 40 04 	sll  %o5, %g4, %g2
    2790:	8b 30 40 06 	srl  %g1, %g6, %g5
    2794:	87 31 20 03 	srl  %g4, 3, %g3
    2798:	84 10 80 05 	or  %g2, %g5, %g2
    279c:	92 02 40 03 	add  %o1, %g3, %o1
    27a0:	80 8a a0 02 	btst  2, %o2
    27a4:	c4 22 20 0c 	st  %g2, [ %o0 + 0xc ]
    27a8:	02 80 00 08 	be  27c8 <__GI_memmove+0x590>
    27ac:	80 8a a0 01 	btst  1, %o2
    27b0:	ca 0a 60 0f 	ldub  [ %o1 + 0xf ], %g5
    27b4:	92 02 7f fe 	add  %o1, -2, %o1
    27b8:	ca 2a 20 0b 	stb  %g5, [ %o0 + 0xb ]
    27bc:	90 02 3f fe 	add  %o0, -2, %o0
    27c0:	ca 0a 60 10 	ldub  [ %o1 + 0x10 ], %g5
    27c4:	ca 2a 20 0c 	stb  %g5, [ %o0 + 0xc ]
    27c8:	02 80 00 04 	be  27d8 <__GI_memmove+0x5a0>
    27cc:	01 00 00 00 	nop 
    27d0:	ca 0a 60 0f 	ldub  [ %o1 + 0xf ], %g5
    27d4:	ca 2a 20 0b 	stb  %g5, [ %o0 + 0xb ]
    27d8:	81 c3 e0 08 	retl 
    27dc:	d0 03 a0 40 	ld  [ %sp + 0x40 ], %o0
    27e0:	80 8a 60 01 	btst  1, %o1
    27e4:	02 80 00 08 	be  2804 <__GI_memmove+0x5cc>
    27e8:	80 8a 60 02 	btst  2, %o1
    27ec:	c4 0a 40 00 	ldub  [ %o1 ], %g2
    27f0:	92 02 60 01 	inc  %o1
    27f4:	c4 2a 00 00 	stb  %g2, [ %o0 ]
    27f8:	94 22 a0 01 	dec  %o2
    27fc:	12 80 00 10 	bne  283c <__GI_memcpy+0x20>
    2800:	90 02 20 01 	inc  %o0
    2804:	c4 12 40 00 	lduh  [ %o1 ], %g2
    2808:	92 02 60 02 	add  %o1, 2, %o1
    280c:	c4 32 00 00 	sth  %g2, [ %o0 ]
    2810:	94 22 a0 02 	sub  %o2, 2, %o2
    2814:	10 80 00 0a 	b  283c <__GI_memcpy+0x20>
    2818:	90 02 20 02 	add  %o0, 2, %o0

0000281c <__GI_memcpy>:
    281c:	98 22 00 09 	sub  %o0, %o1, %o4
    2820:	d0 23 a0 40 	st  %o0, [ %sp + 0x40 ]
    2824:	9a 8b 20 03 	andcc  %o4, 3, %o5
    2828:	12 80 00 f4 	bne  2bf8 <__GI_memcpy+0x3dc>
    282c:	80 a2 a0 0f 	cmp  %o2, 0xf
    2830:	08 80 04 08 	bleu  3850 <__GI_memcpy+0x1034>
    2834:	80 8a 60 03 	btst  3, %o1
    2838:	12 bf ff ea 	bne  27e0 <__GI_memmove+0x5a8>
    283c:	80 8a 60 04 	btst  4, %o1
    2840:	02 80 00 07 	be  285c <__GI_memcpy+0x40>
    2844:	82 10 00 0a 	mov  %o2, %g1
    2848:	d8 02 40 00 	ld  [ %o1 ], %o4
    284c:	82 20 60 04 	sub  %g1, 4, %g1
    2850:	d8 22 00 00 	st  %o4, [ %o0 ]
    2854:	92 02 60 04 	add  %o1, 4, %o1
    2858:	90 02 20 04 	add  %o0, 4, %o0
    285c:	8c 88 7f 80 	andcc  %g1, -128, %g6
    2860:	02 80 00 37 	be  293c <__GI_memcpy+0x120>
    2864:	80 8a 20 04 	btst  4, %o0
    2868:	02 80 00 84 	be  2a78 <__GI_memcpy+0x25c>
    286c:	d4 1a 60 00 	ldd  [ %o1 ], %o2
    2870:	d8 1a 60 08 	ldd  [ %o1 + 8 ], %o4
    2874:	c4 1a 60 10 	ldd  [ %o1 + 0x10 ], %g2
    2878:	c8 1a 60 18 	ldd  [ %o1 + 0x18 ], %g4
    287c:	d4 22 20 00 	st  %o2, [ %o0 ]
    2880:	d6 22 20 04 	st  %o3, [ %o0 + 4 ]
    2884:	d8 22 20 08 	st  %o4, [ %o0 + 8 ]
    2888:	da 22 20 0c 	st  %o5, [ %o0 + 0xc ]
    288c:	c4 22 20 10 	st  %g2, [ %o0 + 0x10 ]
    2890:	c6 22 20 14 	st  %g3, [ %o0 + 0x14 ]
    2894:	c8 22 20 18 	st  %g4, [ %o0 + 0x18 ]
    2898:	ca 22 20 1c 	st  %g5, [ %o0 + 0x1c ]
    289c:	d4 1a 60 20 	ldd  [ %o1 + 0x20 ], %o2
    28a0:	d8 1a 60 28 	ldd  [ %o1 + 0x28 ], %o4
    28a4:	c4 1a 60 30 	ldd  [ %o1 + 0x30 ], %g2
    28a8:	c8 1a 60 38 	ldd  [ %o1 + 0x38 ], %g4
    28ac:	d4 22 20 20 	st  %o2, [ %o0 + 0x20 ]
    28b0:	d6 22 20 24 	st  %o3, [ %o0 + 0x24 ]
    28b4:	d8 22 20 28 	st  %o4, [ %o0 + 0x28 ]
    28b8:	da 22 20 2c 	st  %o5, [ %o0 + 0x2c ]
    28bc:	c4 22 20 30 	st  %g2, [ %o0 + 0x30 ]
    28c0:	c6 22 20 34 	st  %g3, [ %o0 + 0x34 ]
    28c4:	c8 22 20 38 	st  %g4, [ %o0 + 0x38 ]
    28c8:	ca 22 20 3c 	st  %g5, [ %o0 + 0x3c ]
    28cc:	d4 1a 60 40 	ldd  [ %o1 + 0x40 ], %o2
    28d0:	d8 1a 60 48 	ldd  [ %o1 + 0x48 ], %o4
    28d4:	c4 1a 60 50 	ldd  [ %o1 + 0x50 ], %g2
    28d8:	c8 1a 60 58 	ldd  [ %o1 + 0x58 ], %g4
    28dc:	d4 22 20 40 	st  %o2, [ %o0 + 0x40 ]
    28e0:	d6 22 20 44 	st  %o3, [ %o0 + 0x44 ]
    28e4:	d8 22 20 48 	st  %o4, [ %o0 + 0x48 ]
    28e8:	da 22 20 4c 	st  %o5, [ %o0 + 0x4c ]
    28ec:	c4 22 20 50 	st  %g2, [ %o0 + 0x50 ]
    28f0:	c6 22 20 54 	st  %g3, [ %o0 + 0x54 ]
    28f4:	c8 22 20 58 	st  %g4, [ %o0 + 0x58 ]
    28f8:	ca 22 20 5c 	st  %g5, [ %o0 + 0x5c ]
    28fc:	d4 1a 60 60 	ldd  [ %o1 + 0x60 ], %o2
    2900:	d8 1a 60 68 	ldd  [ %o1 + 0x68 ], %o4
    2904:	c4 1a 60 70 	ldd  [ %o1 + 0x70 ], %g2
    2908:	c8 1a 60 78 	ldd  [ %o1 + 0x78 ], %g4
    290c:	d4 22 20 60 	st  %o2, [ %o0 + 0x60 ]
    2910:	d6 22 20 64 	st  %o3, [ %o0 + 0x64 ]
    2914:	d8 22 20 68 	st  %o4, [ %o0 + 0x68 ]
    2918:	da 22 20 6c 	st  %o5, [ %o0 + 0x6c ]
    291c:	c4 22 20 70 	st  %g2, [ %o0 + 0x70 ]
    2920:	c6 22 20 74 	st  %g3, [ %o0 + 0x74 ]
    2924:	c8 22 20 78 	st  %g4, [ %o0 + 0x78 ]
    2928:	ca 22 20 7c 	st  %g5, [ %o0 + 0x7c ]
    292c:	8c a1 a0 80 	subcc  %g6, 0x80, %g6
    2930:	92 02 60 80 	add  %o1, 0x80, %o1
    2934:	12 bf ff ce 	bne  286c <__GI_memcpy+0x50>
    2938:	90 02 20 80 	add  %o0, 0x80, %o0
    293c:	8c 88 60 70 	andcc  %g1, 0x70, %g6
    2940:	02 80 00 34 	be  2a10 <__GI_memcpy+0x1f4>
    2944:	80 88 60 08 	btst  8, %g1
    2948:	99 31 a0 01 	srl  %g6, 1, %o4
    294c:	84 10 00 0f 	mov  %o7, %g2
    2950:	98 01 80 0c 	add  %g6, %o4, %o4
    2954:	92 02 40 06 	add  %o1, %g6, %o1
    2958:	40 00 03 ca 	call  3880 <__GI_memcpy+0x1064>
    295c:	90 02 00 06 	add  %o0, %g6, %o0
    2960:	81 c3 60 b8 	jmp  %o5 + 0xb8
    2964:	9e 10 00 02 	mov  %g2, %o7
    2968:	c4 1a 7f 90 	ldd  [ %o1 + -112 ], %g2
    296c:	c8 1a 7f 98 	ldd  [ %o1 + -104 ], %g4
    2970:	c4 22 3f 90 	st  %g2, [ %o0 + -112 ]
    2974:	c6 22 3f 94 	st  %g3, [ %o0 + -108 ]
    2978:	c8 22 3f 98 	st  %g4, [ %o0 + -104 ]
    297c:	ca 22 3f 9c 	st  %g5, [ %o0 + -100 ]
    2980:	c4 1a 7f a0 	ldd  [ %o1 + -96 ], %g2
    2984:	c8 1a 7f a8 	ldd  [ %o1 + -88 ], %g4
    2988:	c4 22 3f a0 	st  %g2, [ %o0 + -96 ]
    298c:	c6 22 3f a4 	st  %g3, [ %o0 + -92 ]
    2990:	c8 22 3f a8 	st  %g4, [ %o0 + -88 ]
    2994:	ca 22 3f ac 	st  %g5, [ %o0 + -84 ]
    2998:	c4 1a 7f b0 	ldd  [ %o1 + -80 ], %g2
    299c:	c8 1a 7f b8 	ldd  [ %o1 + -72 ], %g4
    29a0:	c4 22 3f b0 	st  %g2, [ %o0 + -80 ]
    29a4:	c6 22 3f b4 	st  %g3, [ %o0 + -76 ]
    29a8:	c8 22 3f b8 	st  %g4, [ %o0 + -72 ]
    29ac:	ca 22 3f bc 	st  %g5, [ %o0 + -68 ]
    29b0:	c4 1a 7f c0 	ldd  [ %o1 + -64 ], %g2
    29b4:	c8 1a 7f c8 	ldd  [ %o1 + -56 ], %g4
    29b8:	c4 22 3f c0 	st  %g2, [ %o0 + -64 ]
    29bc:	c6 22 3f c4 	st  %g3, [ %o0 + -60 ]
    29c0:	c8 22 3f c8 	st  %g4, [ %o0 + -56 ]
    29c4:	ca 22 3f cc 	st  %g5, [ %o0 + -52 ]
    29c8:	c4 1a 7f d0 	ldd  [ %o1 + -48 ], %g2
    29cc:	c8 1a 7f d8 	ldd  [ %o1 + -40 ], %g4
    29d0:	c4 22 3f d0 	st  %g2, [ %o0 + -48 ]
    29d4:	c6 22 3f d4 	st  %g3, [ %o0 + -44 ]
    29d8:	c8 22 3f d8 	st  %g4, [ %o0 + -40 ]
    29dc:	ca 22 3f dc 	st  %g5, [ %o0 + -36 ]
    29e0:	c4 1a 7f e0 	ldd  [ %o1 + -32 ], %g2
    29e4:	c8 1a 7f e8 	ldd  [ %o1 + -24 ], %g4
    29e8:	c4 22 3f e0 	st  %g2, [ %o0 + -32 ]
    29ec:	c6 22 3f e4 	st  %g3, [ %o0 + -28 ]
    29f0:	c8 22 3f e8 	st  %g4, [ %o0 + -24 ]
    29f4:	ca 22 3f ec 	st  %g5, [ %o0 + -20 ]
    29f8:	c4 1a 7f f0 	ldd  [ %o1 + -16 ], %g2
    29fc:	c8 1a 7f f8 	ldd  [ %o1 + -8 ], %g4
    2a00:	c4 22 3f f0 	st  %g2, [ %o0 + -16 ]
    2a04:	c6 22 3f f4 	st  %g3, [ %o0 + -12 ]
    2a08:	c8 22 3f f8 	st  %g4, [ %o0 + -8 ]
    2a0c:	ca 22 3f fc 	st  %g5, [ %o0 + -4 ]
    2a10:	02 80 00 07 	be  2a2c <__GI_memcpy+0x210>
    2a14:	80 88 60 04 	btst  4, %g1
    2a18:	c4 1a 40 00 	ldd  [ %o1 ], %g2
    2a1c:	90 02 20 08 	add  %o0, 8, %o0
    2a20:	c4 22 3f f8 	st  %g2, [ %o0 + -8 ]
    2a24:	92 02 60 08 	add  %o1, 8, %o1
    2a28:	c6 22 3f fc 	st  %g3, [ %o0 + -4 ]
    2a2c:	02 80 00 06 	be  2a44 <__GI_memcpy+0x228>
    2a30:	80 88 60 02 	btst  2, %g1
    2a34:	c4 02 40 00 	ld  [ %o1 ], %g2
    2a38:	92 02 60 04 	add  %o1, 4, %o1
    2a3c:	c4 22 00 00 	st  %g2, [ %o0 ]
    2a40:	90 02 20 04 	add  %o0, 4, %o0
    2a44:	02 80 00 06 	be  2a5c <__GI_memcpy+0x240>
    2a48:	80 88 60 01 	btst  1, %g1
    2a4c:	c4 12 40 00 	lduh  [ %o1 ], %g2
    2a50:	92 02 60 02 	add  %o1, 2, %o1
    2a54:	c4 32 00 00 	sth  %g2, [ %o0 ]
    2a58:	90 02 20 02 	add  %o0, 2, %o0
    2a5c:	02 80 00 04 	be  2a6c <__GI_memcpy+0x250>
    2a60:	01 00 00 00 	nop 
    2a64:	c4 0a 40 00 	ldub  [ %o1 ], %g2
    2a68:	c4 2a 00 00 	stb  %g2, [ %o0 ]
    2a6c:	81 c3 e0 08 	retl 
    2a70:	d0 03 a0 40 	ld  [ %sp + 0x40 ], %o0
    2a74:	d4 1a 60 00 	ldd  [ %o1 ], %o2
    2a78:	d8 1a 60 08 	ldd  [ %o1 + 8 ], %o4
    2a7c:	c4 1a 60 10 	ldd  [ %o1 + 0x10 ], %g2
    2a80:	c8 1a 60 18 	ldd  [ %o1 + 0x18 ], %g4
    2a84:	d4 3a 20 00 	std  %o2, [ %o0 ]
    2a88:	d8 3a 20 08 	std  %o4, [ %o0 + 8 ]
    2a8c:	c4 3a 20 10 	std  %g2, [ %o0 + 0x10 ]
    2a90:	c8 3a 20 18 	std  %g4, [ %o0 + 0x18 ]
    2a94:	d4 1a 60 20 	ldd  [ %o1 + 0x20 ], %o2
    2a98:	d8 1a 60 28 	ldd  [ %o1 + 0x28 ], %o4
    2a9c:	c4 1a 60 30 	ldd  [ %o1 + 0x30 ], %g2
    2aa0:	c8 1a 60 38 	ldd  [ %o1 + 0x38 ], %g4
    2aa4:	d4 3a 20 20 	std  %o2, [ %o0 + 0x20 ]
    2aa8:	d8 3a 20 28 	std  %o4, [ %o0 + 0x28 ]
    2aac:	c4 3a 20 30 	std  %g2, [ %o0 + 0x30 ]
    2ab0:	c8 3a 20 38 	std  %g4, [ %o0 + 0x38 ]
    2ab4:	d4 1a 60 40 	ldd  [ %o1 + 0x40 ], %o2
    2ab8:	d8 1a 60 48 	ldd  [ %o1 + 0x48 ], %o4
    2abc:	c4 1a 60 50 	ldd  [ %o1 + 0x50 ], %g2
    2ac0:	c8 1a 60 58 	ldd  [ %o1 + 0x58 ], %g4
    2ac4:	d4 3a 20 40 	std  %o2, [ %o0 + 0x40 ]
    2ac8:	d8 3a 20 48 	std  %o4, [ %o0 + 0x48 ]
    2acc:	c4 3a 20 50 	std  %g2, [ %o0 + 0x50 ]
    2ad0:	c8 3a 20 58 	std  %g4, [ %o0 + 0x58 ]
    2ad4:	d4 1a 60 60 	ldd  [ %o1 + 0x60 ], %o2
    2ad8:	d8 1a 60 68 	ldd  [ %o1 + 0x68 ], %o4
    2adc:	c4 1a 60 70 	ldd  [ %o1 + 0x70 ], %g2
    2ae0:	c8 1a 60 78 	ldd  [ %o1 + 0x78 ], %g4
    2ae4:	d4 3a 20 60 	std  %o2, [ %o0 + 0x60 ]
    2ae8:	d8 3a 20 68 	std  %o4, [ %o0 + 0x68 ]
    2aec:	c4 3a 20 70 	std  %g2, [ %o0 + 0x70 ]
    2af0:	c8 3a 20 78 	std  %g4, [ %o0 + 0x78 ]
    2af4:	8c a1 a0 80 	subcc  %g6, 0x80, %g6
    2af8:	92 02 60 80 	add  %o1, 0x80, %o1
    2afc:	12 bf ff de 	bne  2a74 <__GI_memcpy+0x258>
    2b00:	90 02 20 80 	add  %o0, 0x80, %o0
    2b04:	8c 88 60 70 	andcc  %g1, 0x70, %g6
    2b08:	02 80 00 24 	be  2b98 <__GI_memcpy+0x37c>
    2b0c:	80 88 60 08 	btst  8, %g1
    2b10:	84 10 00 0f 	mov  %o7, %g2
    2b14:	40 00 03 5d 	call  3888 <__GI_memcpy+0x106c>
    2b18:	92 02 40 06 	add  %o1, %g6, %o1
    2b1c:	9e 10 00 02 	mov  %g2, %o7
    2b20:	81 c3 60 84 	jmp  %o5 + 0x84
    2b24:	90 02 00 06 	add  %o0, %g6, %o0
    2b28:	c4 1a 7f 90 	ldd  [ %o1 + -112 ], %g2
    2b2c:	c8 1a 7f 98 	ldd  [ %o1 + -104 ], %g4
    2b30:	c4 3a 3f 90 	std  %g2, [ %o0 + -112 ]
    2b34:	c8 3a 3f 98 	std  %g4, [ %o0 + -104 ]
    2b38:	c4 1a 7f a0 	ldd  [ %o1 + -96 ], %g2
    2b3c:	c8 1a 7f a8 	ldd  [ %o1 + -88 ], %g4
    2b40:	c4 3a 3f a0 	std  %g2, [ %o0 + -96 ]
    2b44:	c8 3a 3f a8 	std  %g4, [ %o0 + -88 ]
    2b48:	c4 1a 7f b0 	ldd  [ %o1 + -80 ], %g2
    2b4c:	c8 1a 7f b8 	ldd  [ %o1 + -72 ], %g4
    2b50:	c4 3a 3f b0 	std  %g2, [ %o0 + -80 ]
    2b54:	c8 3a 3f b8 	std  %g4, [ %o0 + -72 ]
    2b58:	c4 1a 7f c0 	ldd  [ %o1 + -64 ], %g2
    2b5c:	c8 1a 7f c8 	ldd  [ %o1 + -56 ], %g4
    2b60:	c4 3a 3f c0 	std  %g2, [ %o0 + -64 ]
    2b64:	c8 3a 3f c8 	std  %g4, [ %o0 + -56 ]
    2b68:	c4 1a 7f d0 	ldd  [ %o1 + -48 ], %g2
    2b6c:	c8 1a 7f d8 	ldd  [ %o1 + -40 ], %g4
    2b70:	c4 3a 3f d0 	std  %g2, [ %o0 + -48 ]
    2b74:	c8 3a 3f d8 	std  %g4, [ %o0 + -40 ]
    2b78:	c4 1a 7f e0 	ldd  [ %o1 + -32 ], %g2
    2b7c:	c8 1a 7f e8 	ldd  [ %o1 + -24 ], %g4
    2b80:	c4 3a 3f e0 	std  %g2, [ %o0 + -32 ]
    2b84:	c8 3a 3f e8 	std  %g4, [ %o0 + -24 ]
    2b88:	c4 1a 7f f0 	ldd  [ %o1 + -16 ], %g2
    2b8c:	c8 1a 7f f8 	ldd  [ %o1 + -8 ], %g4
    2b90:	c4 3a 3f f0 	std  %g2, [ %o0 + -16 ]
    2b94:	c8 3a 3f f8 	std  %g4, [ %o0 + -8 ]
    2b98:	02 80 00 06 	be  2bb0 <__GI_memcpy+0x394>
    2b9c:	80 88 60 04 	btst  4, %g1
    2ba0:	c4 1a 40 00 	ldd  [ %o1 ], %g2
    2ba4:	90 02 20 08 	add  %o0, 8, %o0
    2ba8:	c4 3a 3f f8 	std  %g2, [ %o0 + -8 ]
    2bac:	92 02 60 08 	add  %o1, 8, %o1
    2bb0:	02 80 00 06 	be  2bc8 <__GI_memcpy+0x3ac>
    2bb4:	80 88 60 02 	btst  2, %g1
    2bb8:	c4 02 40 00 	ld  [ %o1 ], %g2
    2bbc:	92 02 60 04 	add  %o1, 4, %o1
    2bc0:	c4 22 00 00 	st  %g2, [ %o0 ]
    2bc4:	90 02 20 04 	add  %o0, 4, %o0
    2bc8:	02 80 00 06 	be  2be0 <__GI_memcpy+0x3c4>
    2bcc:	80 88 60 01 	btst  1, %g1
    2bd0:	c4 12 40 00 	lduh  [ %o1 ], %g2
    2bd4:	92 02 60 02 	add  %o1, 2, %o1
    2bd8:	c4 32 00 00 	sth  %g2, [ %o0 ]
    2bdc:	90 02 20 02 	add  %o0, 2, %o0
    2be0:	02 80 00 04 	be  2bf0 <__GI_memcpy+0x3d4>
    2be4:	01 00 00 00 	nop 
    2be8:	c4 0a 40 00 	ldub  [ %o1 ], %g2
    2bec:	c4 2a 00 00 	stb  %g2, [ %o0 ]
    2bf0:	81 c3 e0 08 	retl 
    2bf4:	d0 03 a0 40 	ld  [ %sp + 0x40 ], %o0
    2bf8:	80 a2 a0 06 	cmp  %o2, 6
    2bfc:	08 80 02 ea 	bleu  37a4 <__GI_memcpy+0xf88>
    2c00:	80 a2 a1 00 	cmp  %o2, 0x100
    2c04:	1a 80 00 65 	bcc  2d98 <__GI_memcpy+0x57c>
    2c08:	80 8a 20 03 	btst  3, %o0
    2c0c:	02 80 00 11 	be  2c50 <__GI_memcpy+0x434>
    2c10:	80 8a 20 01 	btst  1, %o0
    2c14:	02 80 00 08 	be  2c34 <__GI_memcpy+0x418>
    2c18:	80 8a 20 02 	btst  2, %o0
    2c1c:	ca 0a 40 00 	ldub  [ %o1 ], %g5
    2c20:	92 02 60 01 	inc  %o1
    2c24:	ca 2a 00 00 	stb  %g5, [ %o0 ]
    2c28:	94 22 a0 01 	dec  %o2
    2c2c:	12 80 00 09 	bne  2c50 <__GI_memcpy+0x434>
    2c30:	90 02 20 01 	inc  %o0
    2c34:	c6 0a 40 00 	ldub  [ %o1 ], %g3
    2c38:	92 02 60 02 	add  %o1, 2, %o1
    2c3c:	c6 2a 00 00 	stb  %g3, [ %o0 ]
    2c40:	94 22 a0 02 	sub  %o2, 2, %o2
    2c44:	c6 0a 7f ff 	ldub  [ %o1 + -1 ], %g3
    2c48:	90 02 20 02 	add  %o0, 2, %o0
    2c4c:	c6 2a 3f ff 	stb  %g3, [ %o0 + -1 ]
    2c50:	84 0a 60 03 	and  %o1, 3, %g2
    2c54:	86 0a a0 0c 	and  %o2, 0xc, %g3
    2c58:	92 0a 7f fc 	and  %o1, -4, %o1
    2c5c:	80 a0 e0 04 	cmp  %g3, 4
    2c60:	89 28 a0 03 	sll  %g2, 3, %g4
    2c64:	84 10 20 20 	mov  0x20, %g2
    2c68:	02 80 00 17 	be  2cc4 <__GI_memcpy+0x4a8>
    2c6c:	8c 20 80 04 	sub  %g2, %g4, %g6
    2c70:	0a 80 00 0f 	bcs  2cac <__GI_memcpy+0x490>
    2c74:	80 a0 e0 08 	cmp  %g3, 8
    2c78:	02 80 00 07 	be  2c94 <__GI_memcpy+0x478>
    2c7c:	87 32 a0 02 	srl  %o2, 2, %g3
    2c80:	d6 02 40 00 	ld  [ %o1 ], %o3
    2c84:	90 02 3f f8 	add  %o0, -8, %o0
    2c88:	d8 02 60 04 	ld  [ %o1 + 4 ], %o4
    2c8c:	10 80 00 1f 	b  2d08 <__GI_memcpy+0x4ec>
    2c90:	86 00 e0 01 	inc  %g3
    2c94:	d8 02 40 00 	ld  [ %o1 ], %o4
    2c98:	90 02 3f f4 	add  %o0, -12, %o0
    2c9c:	da 02 60 04 	ld  [ %o1 + 4 ], %o5
    2ca0:	86 00 e0 02 	add  %g3, 2, %g3
    2ca4:	10 80 00 1e 	b  2d1c <__GI_memcpy+0x500>
    2ca8:	92 02 7f fc 	add  %o1, -4, %o1
    2cac:	c2 02 40 00 	ld  [ %o1 ], %g1
    2cb0:	90 02 3f fc 	add  %o0, -4, %o0
    2cb4:	d6 02 60 04 	ld  [ %o1 + 4 ], %o3
    2cb8:	87 32 a0 02 	srl  %o2, 2, %g3
    2cbc:	10 80 00 0e 	b  2cf4 <__GI_memcpy+0x4d8>
    2cc0:	92 02 60 04 	add  %o1, 4, %o1
    2cc4:	da 02 40 00 	ld  [ %o1 ], %o5
    2cc8:	80 a2 a0 07 	cmp  %o2, 7
    2ccc:	c2 02 60 04 	ld  [ %o1 + 4 ], %g1
    2cd0:	87 32 a0 02 	srl  %o2, 2, %g3
    2cd4:	08 80 00 1c 	bleu  2d44 <__GI_memcpy+0x528>
    2cd8:	92 02 60 08 	add  %o1, 8, %o1
    2cdc:	d6 02 40 00 	ld  [ %o1 ], %o3
    2ce0:	86 00 ff ff 	add  %g3, -1, %g3
    2ce4:	85 2b 40 04 	sll  %o5, %g4, %g2
    2ce8:	8b 30 40 06 	srl  %g1, %g6, %g5
    2cec:	84 10 80 05 	or  %g2, %g5, %g2
    2cf0:	c4 22 00 00 	st  %g2, [ %o0 ]
    2cf4:	d8 02 60 04 	ld  [ %o1 + 4 ], %o4
    2cf8:	85 28 40 04 	sll  %g1, %g4, %g2
    2cfc:	8b 32 c0 06 	srl  %o3, %g6, %g5
    2d00:	84 10 80 05 	or  %g2, %g5, %g2
    2d04:	c4 22 20 04 	st  %g2, [ %o0 + 4 ]
    2d08:	da 02 60 08 	ld  [ %o1 + 8 ], %o5
    2d0c:	85 2a c0 04 	sll  %o3, %g4, %g2
    2d10:	8b 33 00 06 	srl  %o4, %g6, %g5
    2d14:	84 10 80 05 	or  %g2, %g5, %g2
    2d18:	c4 22 20 08 	st  %g2, [ %o0 + 8 ]
    2d1c:	c2 02 60 0c 	ld  [ %o1 + 0xc ], %g1
    2d20:	85 2b 00 04 	sll  %o4, %g4, %g2
    2d24:	8b 33 40 06 	srl  %o5, %g6, %g5
    2d28:	86 80 ff fc 	addcc  %g3, -4, %g3
    2d2c:	84 10 80 05 	or  %g2, %g5, %g2
    2d30:	92 02 60 10 	add  %o1, 0x10, %o1
    2d34:	c4 22 20 0c 	st  %g2, [ %o0 + 0xc ]
    2d38:	90 02 20 10 	add  %o0, 0x10, %o0
    2d3c:	32 bf ff ea 	bne,a   2ce4 <__GI_memcpy+0x4c8>
    2d40:	d6 02 40 00 	ld  [ %o1 ], %o3
    2d44:	85 2b 40 04 	sll  %o5, %g4, %g2
    2d48:	8b 30 40 06 	srl  %g1, %g6, %g5
    2d4c:	87 31 a0 03 	srl  %g6, 3, %g3
    2d50:	84 10 80 05 	or  %g2, %g5, %g2
    2d54:	92 22 40 03 	sub  %o1, %g3, %o1
    2d58:	80 8a a0 02 	btst  2, %o2
    2d5c:	c4 22 00 00 	st  %g2, [ %o0 ]
    2d60:	02 80 00 08 	be  2d80 <__GI_memcpy+0x564>
    2d64:	80 8a a0 01 	btst  1, %o2
    2d68:	c4 0a 40 00 	ldub  [ %o1 ], %g2
    2d6c:	92 02 60 02 	add  %o1, 2, %o1
    2d70:	c4 2a 20 04 	stb  %g2, [ %o0 + 4 ]
    2d74:	90 02 20 02 	add  %o0, 2, %o0
    2d78:	c4 0a 7f ff 	ldub  [ %o1 + -1 ], %g2
    2d7c:	c4 2a 20 03 	stb  %g2, [ %o0 + 3 ]
    2d80:	02 80 00 04 	be  2d90 <__GI_memcpy+0x574>
    2d84:	01 00 00 00 	nop 
    2d88:	c4 0a 40 00 	ldub  [ %o1 ], %g2
    2d8c:	c4 2a 20 04 	stb  %g2, [ %o0 + 4 ]
    2d90:	81 c3 e0 08 	retl 
    2d94:	d0 03 a0 40 	ld  [ %sp + 0x40 ], %o0
    2d98:	80 8a 60 03 	btst  3, %o1
    2d9c:	02 80 00 11 	be  2de0 <__GI_memcpy+0x5c4>
    2da0:	80 8a 60 01 	btst  1, %o1
    2da4:	02 80 00 08 	be  2dc4 <__GI_memcpy+0x5a8>
    2da8:	80 8a 60 02 	btst  2, %o1
    2dac:	c4 0a 40 00 	ldub  [ %o1 ], %g2
    2db0:	92 02 60 01 	inc  %o1
    2db4:	c4 2a 00 00 	stb  %g2, [ %o0 ]
    2db8:	94 22 a0 01 	dec  %o2
    2dbc:	12 80 00 09 	bne  2de0 <__GI_memcpy+0x5c4>
    2dc0:	90 02 20 01 	inc  %o0
    2dc4:	c4 12 40 00 	lduh  [ %o1 ], %g2
    2dc8:	92 02 60 02 	add  %o1, 2, %o1
    2dcc:	87 30 a0 08 	srl  %g2, 8, %g3
    2dd0:	94 22 a0 02 	sub  %o2, 2, %o2
    2dd4:	c6 2a 00 00 	stb  %g3, [ %o0 ]
    2dd8:	90 02 20 02 	add  %o0, 2, %o0
    2ddc:	c4 2a 3f ff 	stb  %g2, [ %o0 + -1 ]
    2de0:	80 8a 60 04 	btst  4, %o1
    2de4:	12 80 00 0d 	bne  2e18 <__GI_memcpy+0x5fc>
    2de8:	80 a3 60 01 	cmp  %o5, 1
    2dec:	d8 02 40 00 	ld  [ %o1 ], %o4
    2df0:	85 33 20 18 	srl  %o4, 0x18, %g2
    2df4:	c4 2a 00 00 	stb  %g2, [ %o0 ]
    2df8:	87 33 20 10 	srl  %o4, 0x10, %g3
    2dfc:	c6 2a 20 01 	stb  %g3, [ %o0 + 1 ]
    2e00:	85 33 20 08 	srl  %o4, 8, %g2
    2e04:	c4 2a 20 02 	stb  %g2, [ %o0 + 2 ]
    2e08:	94 22 a0 04 	sub  %o2, 4, %o2
    2e0c:	d8 2a 20 03 	stb  %o4, [ %o0 + 3 ]
    2e10:	92 02 60 04 	add  %o1, 4, %o1
    2e14:	90 02 20 04 	add  %o0, 4, %o0
    2e18:	02 80 00 da 	be  3180 <__GI_memcpy+0x964>
    2e1c:	80 a3 60 02 	cmp  %o5, 2
    2e20:	02 80 00 6e 	be  2fd8 <__GI_memcpy+0x7bc>
    2e24:	94 22 a0 04 	sub  %o2, 4, %o2
    2e28:	c4 02 40 00 	ld  [ %o1 ], %g2
    2e2c:	92 02 60 04 	add  %o1, 4, %o1
    2e30:	87 30 a0 18 	srl  %g2, 0x18, %g3
    2e34:	8a 0a 20 07 	and  %o0, 7, %g5
    2e38:	c6 2a 00 00 	stb  %g3, [ %o0 ]
    2e3c:	80 a1 60 07 	cmp  %g5, 7
    2e40:	83 28 a0 08 	sll  %g2, 8, %g1
    2e44:	90 02 20 04 	add  %o0, 4, %o0
    2e48:	02 80 01 3b 	be  3334 <__GI_memcpy+0xb18>
    2e4c:	96 0a bf c0 	and  %o2, -64, %o3
    2e50:	d8 02 3f f9 	ld  [ %o0 + -7 ], %o4
    2e54:	c4 1a 60 00 	ldd  [ %o1 ], %g2
    2e58:	c8 1a 60 08 	ldd  [ %o1 + 8 ], %g4
    2e5c:	9b 30 a0 18 	srl  %g2, 0x18, %o5
    2e60:	8d 30 e0 18 	srl  %g3, 0x18, %g6
    2e64:	85 28 a0 08 	sll  %g2, 8, %g2
    2e68:	9a 13 40 01 	or  %o5, %g1, %o5
    2e6c:	83 28 e0 08 	sll  %g3, 8, %g1
    2e70:	84 11 80 02 	or  %g6, %g2, %g2
    2e74:	87 31 20 18 	srl  %g4, 0x18, %g3
    2e78:	8d 31 60 18 	srl  %g5, 0x18, %g6
    2e7c:	89 29 20 08 	sll  %g4, 8, %g4
    2e80:	86 10 c0 01 	or  %g3, %g1, %g3
    2e84:	d8 3a 3f f9 	std  %o4, [ %o0 + -7 ]
    2e88:	c4 3a 20 01 	std  %g2, [ %o0 + 1 ]
    2e8c:	83 29 60 08 	sll  %g5, 8, %g1
    2e90:	98 11 80 04 	or  %g6, %g4, %o4
    2e94:	c4 1a 60 10 	ldd  [ %o1 + 0x10 ], %g2
    2e98:	c8 1a 60 18 	ldd  [ %o1 + 0x18 ], %g4
    2e9c:	9b 30 a0 18 	srl  %g2, 0x18, %o5
    2ea0:	8d 30 e0 18 	srl  %g3, 0x18, %g6
    2ea4:	85 28 a0 08 	sll  %g2, 8, %g2
    2ea8:	9a 13 40 01 	or  %o5, %g1, %o5
    2eac:	83 28 e0 08 	sll  %g3, 8, %g1
    2eb0:	84 11 80 02 	or  %g6, %g2, %g2
    2eb4:	87 31 20 18 	srl  %g4, 0x18, %g3
    2eb8:	8d 31 60 18 	srl  %g5, 0x18, %g6
    2ebc:	89 29 20 08 	sll  %g4, 8, %g4
    2ec0:	86 10 c0 01 	or  %g3, %g1, %g3
    2ec4:	d8 3a 20 09 	std  %o4, [ %o0 + 9 ]
    2ec8:	c4 3a 20 11 	std  %g2, [ %o0 + 0x11 ]
    2ecc:	83 29 60 08 	sll  %g5, 8, %g1
    2ed0:	98 11 80 04 	or  %g6, %g4, %o4
    2ed4:	c4 1a 60 20 	ldd  [ %o1 + 0x20 ], %g2
    2ed8:	c8 1a 60 28 	ldd  [ %o1 + 0x28 ], %g4
    2edc:	9b 30 a0 18 	srl  %g2, 0x18, %o5
    2ee0:	8d 30 e0 18 	srl  %g3, 0x18, %g6
    2ee4:	85 28 a0 08 	sll  %g2, 8, %g2
    2ee8:	9a 13 40 01 	or  %o5, %g1, %o5
    2eec:	83 28 e0 08 	sll  %g3, 8, %g1
    2ef0:	84 11 80 02 	or  %g6, %g2, %g2
    2ef4:	87 31 20 18 	srl  %g4, 0x18, %g3
    2ef8:	8d 31 60 18 	srl  %g5, 0x18, %g6
    2efc:	89 29 20 08 	sll  %g4, 8, %g4
    2f00:	86 10 c0 01 	or  %g3, %g1, %g3
    2f04:	d8 3a 20 19 	std  %o4, [ %o0 + 0x19 ]
    2f08:	c4 3a 20 21 	std  %g2, [ %o0 + 0x21 ]
    2f0c:	83 29 60 08 	sll  %g5, 8, %g1
    2f10:	98 11 80 04 	or  %g6, %g4, %o4
    2f14:	c4 1a 60 30 	ldd  [ %o1 + 0x30 ], %g2
    2f18:	c8 1a 60 38 	ldd  [ %o1 + 0x38 ], %g4
    2f1c:	9b 30 a0 18 	srl  %g2, 0x18, %o5
    2f20:	8d 30 e0 18 	srl  %g3, 0x18, %g6
    2f24:	85 28 a0 08 	sll  %g2, 8, %g2
    2f28:	9a 13 40 01 	or  %o5, %g1, %o5
    2f2c:	83 28 e0 08 	sll  %g3, 8, %g1
    2f30:	84 11 80 02 	or  %g6, %g2, %g2
    2f34:	87 31 20 18 	srl  %g4, 0x18, %g3
    2f38:	8d 31 60 18 	srl  %g5, 0x18, %g6
    2f3c:	89 29 20 08 	sll  %g4, 8, %g4
    2f40:	86 10 c0 01 	or  %g3, %g1, %g3
    2f44:	d8 3a 20 29 	std  %o4, [ %o0 + 0x29 ]
    2f48:	c4 3a 20 31 	std  %g2, [ %o0 + 0x31 ]
    2f4c:	83 29 60 08 	sll  %g5, 8, %g1
    2f50:	98 11 80 04 	or  %g6, %g4, %o4
    2f54:	96 a2 e0 40 	subcc  %o3, 0x40, %o3
    2f58:	92 02 60 40 	add  %o1, 0x40, %o1
    2f5c:	12 bf ff be 	bne  2e54 <__GI_memcpy+0x638>
    2f60:	90 02 20 40 	add  %o0, 0x40, %o0
    2f64:	96 8a a0 30 	andcc  %o2, 0x30, %o3
    2f68:	22 80 00 17 	be,a   2fc4 <__GI_memcpy+0x7a8>
    2f6c:	85 30 60 10 	srl  %g1, 0x10, %g2
    2f70:	c4 1a 60 00 	ldd  [ %o1 ], %g2
    2f74:	c8 1a 60 08 	ldd  [ %o1 + 8 ], %g4
    2f78:	9b 30 a0 18 	srl  %g2, 0x18, %o5
    2f7c:	8d 30 e0 18 	srl  %g3, 0x18, %g6
    2f80:	85 28 a0 08 	sll  %g2, 8, %g2
    2f84:	9a 13 40 01 	or  %o5, %g1, %o5
    2f88:	83 28 e0 08 	sll  %g3, 8, %g1
    2f8c:	84 11 80 02 	or  %g6, %g2, %g2
    2f90:	87 31 20 18 	srl  %g4, 0x18, %g3
    2f94:	8d 31 60 18 	srl  %g5, 0x18, %g6
    2f98:	89 29 20 08 	sll  %g4, 8, %g4
    2f9c:	86 10 c0 01 	or  %g3, %g1, %g3
    2fa0:	d8 3a 3f f9 	std  %o4, [ %o0 + -7 ]
    2fa4:	c4 3a 20 01 	std  %g2, [ %o0 + 1 ]
    2fa8:	83 29 60 08 	sll  %g5, 8, %g1
    2fac:	98 11 80 04 	or  %g6, %g4, %o4
    2fb0:	96 a2 e0 10 	subcc  %o3, 0x10, %o3
    2fb4:	92 02 60 10 	add  %o1, 0x10, %o1
    2fb8:	12 bf ff ee 	bne  2f70 <__GI_memcpy+0x754>
    2fbc:	90 02 20 10 	add  %o0, 0x10, %o0
    2fc0:	85 30 60 10 	srl  %g1, 0x10, %g2
    2fc4:	d8 22 3f f9 	st  %o4, [ %o0 + -7 ]
    2fc8:	c4 32 3f fd 	sth  %g2, [ %o0 + -3 ]
    2fcc:	89 30 60 08 	srl  %g1, 8, %g4
    2fd0:	10 80 01 f5 	b  37a4 <__GI_memcpy+0xf88>
    2fd4:	c8 2a 3f ff 	stb  %g4, [ %o0 + -1 ]
    2fd8:	c4 02 40 00 	ld  [ %o1 ], %g2
    2fdc:	92 02 60 04 	add  %o1, 4, %o1
    2fe0:	87 30 a0 10 	srl  %g2, 0x10, %g3
    2fe4:	8a 0a 20 07 	and  %o0, 7, %g5
    2fe8:	c6 32 00 00 	sth  %g3, [ %o0 ]
    2fec:	80 a1 60 06 	cmp  %g5, 6
    2ff0:	83 28 a0 10 	sll  %g2, 0x10, %g1
    2ff4:	90 02 20 04 	add  %o0, 4, %o0
    2ff8:	02 80 01 8e 	be  3630 <__GI_memcpy+0xe14>
    2ffc:	96 0a bf c0 	and  %o2, -64, %o3
    3000:	d8 02 3f fa 	ld  [ %o0 + -6 ], %o4
    3004:	c4 1a 60 00 	ldd  [ %o1 ], %g2
    3008:	c8 1a 60 08 	ldd  [ %o1 + 8 ], %g4
    300c:	9b 30 a0 10 	srl  %g2, 0x10, %o5
    3010:	8d 30 e0 10 	srl  %g3, 0x10, %g6
    3014:	85 28 a0 10 	sll  %g2, 0x10, %g2
    3018:	9a 13 40 01 	or  %o5, %g1, %o5
    301c:	83 28 e0 10 	sll  %g3, 0x10, %g1
    3020:	84 11 80 02 	or  %g6, %g2, %g2
    3024:	87 31 20 10 	srl  %g4, 0x10, %g3
    3028:	8d 31 60 10 	srl  %g5, 0x10, %g6
    302c:	89 29 20 10 	sll  %g4, 0x10, %g4
    3030:	86 10 c0 01 	or  %g3, %g1, %g3
    3034:	d8 3a 3f fa 	std  %o4, [ %o0 + -6 ]
    3038:	c4 3a 20 02 	std  %g2, [ %o0 + 2 ]
    303c:	83 29 60 10 	sll  %g5, 0x10, %g1
    3040:	98 11 80 04 	or  %g6, %g4, %o4
    3044:	c4 1a 60 10 	ldd  [ %o1 + 0x10 ], %g2
    3048:	c8 1a 60 18 	ldd  [ %o1 + 0x18 ], %g4
    304c:	9b 30 a0 10 	srl  %g2, 0x10, %o5
    3050:	8d 30 e0 10 	srl  %g3, 0x10, %g6
    3054:	85 28 a0 10 	sll  %g2, 0x10, %g2
    3058:	9a 13 40 01 	or  %o5, %g1, %o5
    305c:	83 28 e0 10 	sll  %g3, 0x10, %g1
    3060:	84 11 80 02 	or  %g6, %g2, %g2
    3064:	87 31 20 10 	srl  %g4, 0x10, %g3
    3068:	8d 31 60 10 	srl  %g5, 0x10, %g6
    306c:	89 29 20 10 	sll  %g4, 0x10, %g4
    3070:	86 10 c0 01 	or  %g3, %g1, %g3
    3074:	d8 3a 20 0a 	std  %o4, [ %o0 + 0xa ]
    3078:	c4 3a 20 12 	std  %g2, [ %o0 + 0x12 ]
    307c:	83 29 60 10 	sll  %g5, 0x10, %g1
    3080:	98 11 80 04 	or  %g6, %g4, %o4
    3084:	c4 1a 60 20 	ldd  [ %o1 + 0x20 ], %g2
    3088:	c8 1a 60 28 	ldd  [ %o1 + 0x28 ], %g4
    308c:	9b 30 a0 10 	srl  %g2, 0x10, %o5
    3090:	8d 30 e0 10 	srl  %g3, 0x10, %g6
    3094:	85 28 a0 10 	sll  %g2, 0x10, %g2
    3098:	9a 13 40 01 	or  %o5, %g1, %o5
    309c:	83 28 e0 10 	sll  %g3, 0x10, %g1
    30a0:	84 11 80 02 	or  %g6, %g2, %g2
    30a4:	87 31 20 10 	srl  %g4, 0x10, %g3
    30a8:	8d 31 60 10 	srl  %g5, 0x10, %g6
    30ac:	89 29 20 10 	sll  %g4, 0x10, %g4
    30b0:	86 10 c0 01 	or  %g3, %g1, %g3
    30b4:	d8 3a 20 1a 	std  %o4, [ %o0 + 0x1a ]
    30b8:	c4 3a 20 22 	std  %g2, [ %o0 + 0x22 ]
    30bc:	83 29 60 10 	sll  %g5, 0x10, %g1
    30c0:	98 11 80 04 	or  %g6, %g4, %o4
    30c4:	c4 1a 60 30 	ldd  [ %o1 + 0x30 ], %g2
    30c8:	c8 1a 60 38 	ldd  [ %o1 + 0x38 ], %g4
    30cc:	9b 30 a0 10 	srl  %g2, 0x10, %o5
    30d0:	8d 30 e0 10 	srl  %g3, 0x10, %g6
    30d4:	85 28 a0 10 	sll  %g2, 0x10, %g2
    30d8:	9a 13 40 01 	or  %o5, %g1, %o5
    30dc:	83 28 e0 10 	sll  %g3, 0x10, %g1
    30e0:	84 11 80 02 	or  %g6, %g2, %g2
    30e4:	87 31 20 10 	srl  %g4, 0x10, %g3
    30e8:	8d 31 60 10 	srl  %g5, 0x10, %g6
    30ec:	89 29 20 10 	sll  %g4, 0x10, %g4
    30f0:	86 10 c0 01 	or  %g3, %g1, %g3
    30f4:	d8 3a 20 2a 	std  %o4, [ %o0 + 0x2a ]
    30f8:	c4 3a 20 32 	std  %g2, [ %o0 + 0x32 ]
    30fc:	83 29 60 10 	sll  %g5, 0x10, %g1
    3100:	98 11 80 04 	or  %g6, %g4, %o4
    3104:	96 a2 e0 40 	subcc  %o3, 0x40, %o3
    3108:	92 02 60 40 	add  %o1, 0x40, %o1
    310c:	12 bf ff be 	bne  3004 <__GI_memcpy+0x7e8>
    3110:	90 02 20 40 	add  %o0, 0x40, %o0
    3114:	96 8a a0 30 	andcc  %o2, 0x30, %o3
    3118:	22 80 00 17 	be,a   3174 <__GI_memcpy+0x958>
    311c:	85 30 60 10 	srl  %g1, 0x10, %g2
    3120:	c4 1a 60 00 	ldd  [ %o1 ], %g2
    3124:	c8 1a 60 08 	ldd  [ %o1 + 8 ], %g4
    3128:	9b 30 a0 10 	srl  %g2, 0x10, %o5
    312c:	8d 30 e0 10 	srl  %g3, 0x10, %g6
    3130:	85 28 a0 10 	sll  %g2, 0x10, %g2
    3134:	9a 13 40 01 	or  %o5, %g1, %o5
    3138:	83 28 e0 10 	sll  %g3, 0x10, %g1
    313c:	84 11 80 02 	or  %g6, %g2, %g2
    3140:	87 31 20 10 	srl  %g4, 0x10, %g3
    3144:	8d 31 60 10 	srl  %g5, 0x10, %g6
    3148:	89 29 20 10 	sll  %g4, 0x10, %g4
    314c:	86 10 c0 01 	or  %g3, %g1, %g3
    3150:	d8 3a 3f fa 	std  %o4, [ %o0 + -6 ]
    3154:	c4 3a 20 02 	std  %g2, [ %o0 + 2 ]
    3158:	83 29 60 10 	sll  %g5, 0x10, %g1
    315c:	98 11 80 04 	or  %g6, %g4, %o4
    3160:	96 a2 e0 10 	subcc  %o3, 0x10, %o3
    3164:	92 02 60 10 	add  %o1, 0x10, %o1
    3168:	12 bf ff ee 	bne  3120 <__GI_memcpy+0x904>
    316c:	90 02 20 10 	add  %o0, 0x10, %o0
    3170:	85 30 60 10 	srl  %g1, 0x10, %g2
    3174:	d8 22 3f fa 	st  %o4, [ %o0 + -6 ]
    3178:	10 80 01 8b 	b  37a4 <__GI_memcpy+0xf88>
    317c:	c4 32 3f fe 	sth  %g2, [ %o0 + -2 ]
    3180:	c4 02 40 00 	ld  [ %o1 ], %g2
    3184:	94 22 a0 04 	sub  %o2, 4, %o2
    3188:	87 30 a0 18 	srl  %g2, 0x18, %g3
    318c:	8a 0a 20 07 	and  %o0, 7, %g5
    3190:	c6 2a 00 00 	stb  %g3, [ %o0 ]
    3194:	80 a1 60 05 	cmp  %g5, 5
    3198:	89 30 a0 08 	srl  %g2, 8, %g4
    319c:	83 28 a0 18 	sll  %g2, 0x18, %g1
    31a0:	c8 32 20 01 	sth  %g4, [ %o0 + 1 ]
    31a4:	92 02 60 04 	add  %o1, 4, %o1
    31a8:	02 80 00 c3 	be  34b4 <__GI_memcpy+0xc98>
    31ac:	96 0a bf c0 	and  %o2, -64, %o3
    31b0:	d8 02 3f ff 	ld  [ %o0 + -1 ], %o4
    31b4:	90 02 20 04 	add  %o0, 4, %o0
    31b8:	c4 1a 60 00 	ldd  [ %o1 ], %g2
    31bc:	c8 1a 60 08 	ldd  [ %o1 + 8 ], %g4
    31c0:	9b 30 a0 08 	srl  %g2, 8, %o5
    31c4:	8d 30 e0 08 	srl  %g3, 8, %g6
    31c8:	85 28 a0 18 	sll  %g2, 0x18, %g2
    31cc:	9a 13 40 01 	or  %o5, %g1, %o5
    31d0:	83 28 e0 18 	sll  %g3, 0x18, %g1
    31d4:	84 11 80 02 	or  %g6, %g2, %g2
    31d8:	87 31 20 08 	srl  %g4, 8, %g3
    31dc:	8d 31 60 08 	srl  %g5, 8, %g6
    31e0:	89 29 20 18 	sll  %g4, 0x18, %g4
    31e4:	86 10 c0 01 	or  %g3, %g1, %g3
    31e8:	d8 3a 3f fb 	std  %o4, [ %o0 + -5 ]
    31ec:	c4 3a 20 03 	std  %g2, [ %o0 + 3 ]
    31f0:	83 29 60 18 	sll  %g5, 0x18, %g1
    31f4:	98 11 80 04 	or  %g6, %g4, %o4
    31f8:	c4 1a 60 10 	ldd  [ %o1 + 0x10 ], %g2
    31fc:	c8 1a 60 18 	ldd  [ %o1 + 0x18 ], %g4
    3200:	9b 30 a0 08 	srl  %g2, 8, %o5
    3204:	8d 30 e0 08 	srl  %g3, 8, %g6
    3208:	85 28 a0 18 	sll  %g2, 0x18, %g2
    320c:	9a 13 40 01 	or  %o5, %g1, %o5
    3210:	83 28 e0 18 	sll  %g3, 0x18, %g1
    3214:	84 11 80 02 	or  %g6, %g2, %g2
    3218:	87 31 20 08 	srl  %g4, 8, %g3
    321c:	8d 31 60 08 	srl  %g5, 8, %g6
    3220:	89 29 20 18 	sll  %g4, 0x18, %g4
    3224:	86 10 c0 01 	or  %g3, %g1, %g3
    3228:	d8 3a 20 0b 	std  %o4, [ %o0 + 0xb ]
    322c:	c4 3a 20 13 	std  %g2, [ %o0 + 0x13 ]
    3230:	83 29 60 18 	sll  %g5, 0x18, %g1
    3234:	98 11 80 04 	or  %g6, %g4, %o4
    3238:	c4 1a 60 20 	ldd  [ %o1 + 0x20 ], %g2
    323c:	c8 1a 60 28 	ldd  [ %o1 + 0x28 ], %g4
    3240:	9b 30 a0 08 	srl  %g2, 8, %o5
    3244:	8d 30 e0 08 	srl  %g3, 8, %g6
    3248:	85 28 a0 18 	sll  %g2, 0x18, %g2
    324c:	9a 13 40 01 	or  %o5, %g1, %o5
    3250:	83 28 e0 18 	sll  %g3, 0x18, %g1
    3254:	84 11 80 02 	or  %g6, %g2, %g2
    3258:	87 31 20 08 	srl  %g4, 8, %g3
    325c:	8d 31 60 08 	srl  %g5, 8, %g6
    3260:	89 29 20 18 	sll  %g4, 0x18, %g4
    3264:	86 10 c0 01 	or  %g3, %g1, %g3
    3268:	d8 3a 20 1b 	std  %o4, [ %o0 + 0x1b ]
    326c:	c4 3a 20 23 	std  %g2, [ %o0 + 0x23 ]
    3270:	83 29 60 18 	sll  %g5, 0x18, %g1
    3274:	98 11 80 04 	or  %g6, %g4, %o4
    3278:	c4 1a 60 30 	ldd  [ %o1 + 0x30 ], %g2
    327c:	c8 1a 60 38 	ldd  [ %o1 + 0x38 ], %g4
    3280:	9b 30 a0 08 	srl  %g2, 8, %o5
    3284:	8d 30 e0 08 	srl  %g3, 8, %g6
    3288:	85 28 a0 18 	sll  %g2, 0x18, %g2
    328c:	9a 13 40 01 	or  %o5, %g1, %o5
    3290:	83 28 e0 18 	sll  %g3, 0x18, %g1
    3294:	84 11 80 02 	or  %g6, %g2, %g2
    3298:	87 31 20 08 	srl  %g4, 8, %g3
    329c:	8d 31 60 08 	srl  %g5, 8, %g6
    32a0:	89 29 20 18 	sll  %g4, 0x18, %g4
    32a4:	86 10 c0 01 	or  %g3, %g1, %g3
    32a8:	d8 3a 20 2b 	std  %o4, [ %o0 + 0x2b ]
    32ac:	c4 3a 20 33 	std  %g2, [ %o0 + 0x33 ]
    32b0:	83 29 60 18 	sll  %g5, 0x18, %g1
    32b4:	98 11 80 04 	or  %g6, %g4, %o4
    32b8:	96 a2 e0 40 	subcc  %o3, 0x40, %o3
    32bc:	92 02 60 40 	add  %o1, 0x40, %o1
    32c0:	12 bf ff be 	bne  31b8 <__GI_memcpy+0x99c>
    32c4:	90 02 20 40 	add  %o0, 0x40, %o0
    32c8:	96 8a a0 30 	andcc  %o2, 0x30, %o3
    32cc:	22 80 00 17 	be,a   3328 <__GI_memcpy+0xb0c>
    32d0:	85 30 60 18 	srl  %g1, 0x18, %g2
    32d4:	c4 1a 60 00 	ldd  [ %o1 ], %g2
    32d8:	c8 1a 60 08 	ldd  [ %o1 + 8 ], %g4
    32dc:	9b 30 a0 08 	srl  %g2, 8, %o5
    32e0:	8d 30 e0 08 	srl  %g3, 8, %g6
    32e4:	85 28 a0 18 	sll  %g2, 0x18, %g2
    32e8:	9a 13 40 01 	or  %o5, %g1, %o5
    32ec:	83 28 e0 18 	sll  %g3, 0x18, %g1
    32f0:	84 11 80 02 	or  %g6, %g2, %g2
    32f4:	87 31 20 08 	srl  %g4, 8, %g3
    32f8:	8d 31 60 08 	srl  %g5, 8, %g6
    32fc:	89 29 20 18 	sll  %g4, 0x18, %g4
    3300:	86 10 c0 01 	or  %g3, %g1, %g3
    3304:	d8 3a 3f fb 	std  %o4, [ %o0 + -5 ]
    3308:	c4 3a 20 03 	std  %g2, [ %o0 + 3 ]
    330c:	83 29 60 18 	sll  %g5, 0x18, %g1
    3310:	98 11 80 04 	or  %g6, %g4, %o4
    3314:	96 a2 e0 10 	subcc  %o3, 0x10, %o3
    3318:	92 02 60 10 	add  %o1, 0x10, %o1
    331c:	12 bf ff ee 	bne  32d4 <__GI_memcpy+0xab8>
    3320:	90 02 20 10 	add  %o0, 0x10, %o0
    3324:	85 30 60 18 	srl  %g1, 0x18, %g2
    3328:	d8 22 3f fb 	st  %o4, [ %o0 + -5 ]
    332c:	10 80 01 1e 	b  37a4 <__GI_memcpy+0xf88>
    3330:	c4 2a 3f ff 	stb  %g2, [ %o0 + -1 ]
    3334:	c4 1a 60 00 	ldd  [ %o1 ], %g2
    3338:	c8 1a 60 08 	ldd  [ %o1 + 8 ], %g4
    333c:	99 30 a0 18 	srl  %g2, 0x18, %o4
    3340:	9b 30 e0 18 	srl  %g3, 0x18, %o5
    3344:	8d 28 a0 08 	sll  %g2, 8, %g6
    3348:	84 13 00 01 	or  %o4, %g1, %g2
    334c:	83 28 e0 08 	sll  %g3, 8, %g1
    3350:	86 13 40 06 	or  %o5, %g6, %g3
    3354:	99 31 20 18 	srl  %g4, 0x18, %o4
    3358:	9b 31 60 18 	srl  %g5, 0x18, %o5
    335c:	8d 29 20 08 	sll  %g4, 8, %g6
    3360:	88 13 00 01 	or  %o4, %g1, %g4
    3364:	83 29 60 08 	sll  %g5, 8, %g1
    3368:	8a 13 40 06 	or  %o5, %g6, %g5
    336c:	c4 3a 3f fd 	std  %g2, [ %o0 + -3 ]
    3370:	c8 3a 20 05 	std  %g4, [ %o0 + 5 ]
    3374:	c4 1a 60 10 	ldd  [ %o1 + 0x10 ], %g2
    3378:	c8 1a 60 18 	ldd  [ %o1 + 0x18 ], %g4
    337c:	99 30 a0 18 	srl  %g2, 0x18, %o4
    3380:	9b 30 e0 18 	srl  %g3, 0x18, %o5
    3384:	8d 28 a0 08 	sll  %g2, 8, %g6
    3388:	84 13 00 01 	or  %o4, %g1, %g2
    338c:	83 28 e0 08 	sll  %g3, 8, %g1
    3390:	86 13 40 06 	or  %o5, %g6, %g3
    3394:	99 31 20 18 	srl  %g4, 0x18, %o4
    3398:	9b 31 60 18 	srl  %g5, 0x18, %o5
    339c:	8d 29 20 08 	sll  %g4, 8, %g6
    33a0:	88 13 00 01 	or  %o4, %g1, %g4
    33a4:	83 29 60 08 	sll  %g5, 8, %g1
    33a8:	8a 13 40 06 	or  %o5, %g6, %g5
    33ac:	c4 3a 20 0d 	std  %g2, [ %o0 + 0xd ]
    33b0:	c8 3a 20 15 	std  %g4, [ %o0 + 0x15 ]
    33b4:	c4 1a 60 20 	ldd  [ %o1 + 0x20 ], %g2
    33b8:	c8 1a 60 28 	ldd  [ %o1 + 0x28 ], %g4
    33bc:	99 30 a0 18 	srl  %g2, 0x18, %o4
    33c0:	9b 30 e0 18 	srl  %g3, 0x18, %o5
    33c4:	8d 28 a0 08 	sll  %g2, 8, %g6
    33c8:	84 13 00 01 	or  %o4, %g1, %g2
    33cc:	83 28 e0 08 	sll  %g3, 8, %g1
    33d0:	86 13 40 06 	or  %o5, %g6, %g3
    33d4:	99 31 20 18 	srl  %g4, 0x18, %o4
    33d8:	9b 31 60 18 	srl  %g5, 0x18, %o5
    33dc:	8d 29 20 08 	sll  %g4, 8, %g6
    33e0:	88 13 00 01 	or  %o4, %g1, %g4
    33e4:	83 29 60 08 	sll  %g5, 8, %g1
    33e8:	8a 13 40 06 	or  %o5, %g6, %g5
    33ec:	c4 3a 20 1d 	std  %g2, [ %o0 + 0x1d ]
    33f0:	c8 3a 20 25 	std  %g4, [ %o0 + 0x25 ]
    33f4:	c4 1a 60 30 	ldd  [ %o1 + 0x30 ], %g2
    33f8:	c8 1a 60 38 	ldd  [ %o1 + 0x38 ], %g4
    33fc:	99 30 a0 18 	srl  %g2, 0x18, %o4
    3400:	9b 30 e0 18 	srl  %g3, 0x18, %o5
    3404:	8d 28 a0 08 	sll  %g2, 8, %g6
    3408:	84 13 00 01 	or  %o4, %g1, %g2
    340c:	83 28 e0 08 	sll  %g3, 8, %g1
    3410:	86 13 40 06 	or  %o5, %g6, %g3
    3414:	99 31 20 18 	srl  %g4, 0x18, %o4
    3418:	9b 31 60 18 	srl  %g5, 0x18, %o5
    341c:	8d 29 20 08 	sll  %g4, 8, %g6
    3420:	88 13 00 01 	or  %o4, %g1, %g4
    3424:	83 29 60 08 	sll  %g5, 8, %g1
    3428:	8a 13 40 06 	or  %o5, %g6, %g5
    342c:	c4 3a 20 2d 	std  %g2, [ %o0 + 0x2d ]
    3430:	c8 3a 20 35 	std  %g4, [ %o0 + 0x35 ]
    3434:	96 a2 e0 40 	subcc  %o3, 0x40, %o3
    3438:	92 02 60 40 	add  %o1, 0x40, %o1
    343c:	12 bf ff be 	bne  3334 <__GI_memcpy+0xb18>
    3440:	90 02 20 40 	add  %o0, 0x40, %o0
    3444:	96 8a a0 30 	andcc  %o2, 0x30, %o3
    3448:	22 80 00 17 	be,a   34a4 <__GI_memcpy+0xc88>
    344c:	85 30 60 10 	srl  %g1, 0x10, %g2
    3450:	c4 1a 60 00 	ldd  [ %o1 ], %g2
    3454:	c8 1a 60 08 	ldd  [ %o1 + 8 ], %g4
    3458:	99 30 a0 18 	srl  %g2, 0x18, %o4
    345c:	9b 30 e0 18 	srl  %g3, 0x18, %o5
    3460:	8d 28 a0 08 	sll  %g2, 8, %g6
    3464:	84 13 00 01 	or  %o4, %g1, %g2
    3468:	83 28 e0 08 	sll  %g3, 8, %g1
    346c:	86 13 40 06 	or  %o5, %g6, %g3
    3470:	99 31 20 18 	srl  %g4, 0x18, %o4
    3474:	9b 31 60 18 	srl  %g5, 0x18, %o5
    3478:	8d 29 20 08 	sll  %g4, 8, %g6
    347c:	88 13 00 01 	or  %o4, %g1, %g4
    3480:	83 29 60 08 	sll  %g5, 8, %g1
    3484:	8a 13 40 06 	or  %o5, %g6, %g5
    3488:	c4 3a 3f fd 	std  %g2, [ %o0 + -3 ]
    348c:	c8 3a 20 05 	std  %g4, [ %o0 + 5 ]
    3490:	96 a2 e0 10 	subcc  %o3, 0x10, %o3
    3494:	92 02 60 10 	add  %o1, 0x10, %o1
    3498:	12 bf ff ee 	bne  3450 <__GI_memcpy+0xc34>
    349c:	90 02 20 10 	add  %o0, 0x10, %o0
    34a0:	85 30 60 10 	srl  %g1, 0x10, %g2
    34a4:	c4 32 3f fd 	sth  %g2, [ %o0 + -3 ]
    34a8:	89 30 60 08 	srl  %g1, 8, %g4
    34ac:	10 80 00 be 	b  37a4 <__GI_memcpy+0xf88>
    34b0:	c8 2a 3f ff 	stb  %g4, [ %o0 + -1 ]
    34b4:	c4 1a 60 00 	ldd  [ %o1 ], %g2
    34b8:	c8 1a 60 08 	ldd  [ %o1 + 8 ], %g4
    34bc:	99 30 a0 08 	srl  %g2, 8, %o4
    34c0:	9b 30 e0 08 	srl  %g3, 8, %o5
    34c4:	8d 28 a0 18 	sll  %g2, 0x18, %g6
    34c8:	84 13 00 01 	or  %o4, %g1, %g2
    34cc:	83 28 e0 18 	sll  %g3, 0x18, %g1
    34d0:	86 13 40 06 	or  %o5, %g6, %g3
    34d4:	99 31 20 08 	srl  %g4, 8, %o4
    34d8:	9b 31 60 08 	srl  %g5, 8, %o5
    34dc:	8d 29 20 18 	sll  %g4, 0x18, %g6
    34e0:	88 13 00 01 	or  %o4, %g1, %g4
    34e4:	83 29 60 18 	sll  %g5, 0x18, %g1
    34e8:	8a 13 40 06 	or  %o5, %g6, %g5
    34ec:	c4 3a 20 03 	std  %g2, [ %o0 + 3 ]
    34f0:	c8 3a 20 0b 	std  %g4, [ %o0 + 0xb ]
    34f4:	c4 1a 60 10 	ldd  [ %o1 + 0x10 ], %g2
    34f8:	c8 1a 60 18 	ldd  [ %o1 + 0x18 ], %g4
    34fc:	99 30 a0 08 	srl  %g2, 8, %o4
    3500:	9b 30 e0 08 	srl  %g3, 8, %o5
    3504:	8d 28 a0 18 	sll  %g2, 0x18, %g6
    3508:	84 13 00 01 	or  %o4, %g1, %g2
    350c:	83 28 e0 18 	sll  %g3, 0x18, %g1
    3510:	86 13 40 06 	or  %o5, %g6, %g3
    3514:	99 31 20 08 	srl  %g4, 8, %o4
    3518:	9b 31 60 08 	srl  %g5, 8, %o5
    351c:	8d 29 20 18 	sll  %g4, 0x18, %g6
    3520:	88 13 00 01 	or  %o4, %g1, %g4
    3524:	83 29 60 18 	sll  %g5, 0x18, %g1
    3528:	8a 13 40 06 	or  %o5, %g6, %g5
    352c:	c4 3a 20 13 	std  %g2, [ %o0 + 0x13 ]
    3530:	c8 3a 20 1b 	std  %g4, [ %o0 + 0x1b ]
    3534:	c4 1a 60 20 	ldd  [ %o1 + 0x20 ], %g2
    3538:	c8 1a 60 28 	ldd  [ %o1 + 0x28 ], %g4
    353c:	99 30 a0 08 	srl  %g2, 8, %o4
    3540:	9b 30 e0 08 	srl  %g3, 8, %o5
    3544:	8d 28 a0 18 	sll  %g2, 0x18, %g6
    3548:	84 13 00 01 	or  %o4, %g1, %g2
    354c:	83 28 e0 18 	sll  %g3, 0x18, %g1
    3550:	86 13 40 06 	or  %o5, %g6, %g3
    3554:	99 31 20 08 	srl  %g4, 8, %o4
    3558:	9b 31 60 08 	srl  %g5, 8, %o5
    355c:	8d 29 20 18 	sll  %g4, 0x18, %g6
    3560:	88 13 00 01 	or  %o4, %g1, %g4
    3564:	83 29 60 18 	sll  %g5, 0x18, %g1
    3568:	8a 13 40 06 	or  %o5, %g6, %g5
    356c:	c4 3a 20 23 	std  %g2, [ %o0 + 0x23 ]
    3570:	c8 3a 20 2b 	std  %g4, [ %o0 + 0x2b ]
    3574:	c4 1a 60 30 	ldd  [ %o1 + 0x30 ], %g2
    3578:	c8 1a 60 38 	ldd  [ %o1 + 0x38 ], %g4
    357c:	99 30 a0 08 	srl  %g2, 8, %o4
    3580:	9b 30 e0 08 	srl  %g3, 8, %o5
    3584:	8d 28 a0 18 	sll  %g2, 0x18, %g6
    3588:	84 13 00 01 	or  %o4, %g1, %g2
    358c:	83 28 e0 18 	sll  %g3, 0x18, %g1
    3590:	86 13 40 06 	or  %o5, %g6, %g3
    3594:	99 31 20 08 	srl  %g4, 8, %o4
    3598:	9b 31 60 08 	srl  %g5, 8, %o5
    359c:	8d 29 20 18 	sll  %g4, 0x18, %g6
    35a0:	88 13 00 01 	or  %o4, %g1, %g4
    35a4:	83 29 60 18 	sll  %g5, 0x18, %g1
    35a8:	8a 13 40 06 	or  %o5, %g6, %g5
    35ac:	c4 3a 20 33 	std  %g2, [ %o0 + 0x33 ]
    35b0:	c8 3a 20 3b 	std  %g4, [ %o0 + 0x3b ]
    35b4:	96 a2 e0 40 	subcc  %o3, 0x40, %o3
    35b8:	92 02 60 40 	add  %o1, 0x40, %o1
    35bc:	12 bf ff be 	bne  34b4 <__GI_memcpy+0xc98>
    35c0:	90 02 20 40 	add  %o0, 0x40, %o0
    35c4:	96 8a a0 30 	andcc  %o2, 0x30, %o3
    35c8:	22 80 00 17 	be,a   3624 <__GI_memcpy+0xe08>
    35cc:	85 30 60 18 	srl  %g1, 0x18, %g2
    35d0:	c4 1a 60 00 	ldd  [ %o1 ], %g2
    35d4:	c8 1a 60 08 	ldd  [ %o1 + 8 ], %g4
    35d8:	99 30 a0 08 	srl  %g2, 8, %o4
    35dc:	9b 30 e0 08 	srl  %g3, 8, %o5
    35e0:	8d 28 a0 18 	sll  %g2, 0x18, %g6
    35e4:	84 13 00 01 	or  %o4, %g1, %g2
    35e8:	83 28 e0 18 	sll  %g3, 0x18, %g1
    35ec:	86 13 40 06 	or  %o5, %g6, %g3
    35f0:	99 31 20 08 	srl  %g4, 8, %o4
    35f4:	9b 31 60 08 	srl  %g5, 8, %o5
    35f8:	8d 29 20 18 	sll  %g4, 0x18, %g6
    35fc:	88 13 00 01 	or  %o4, %g1, %g4
    3600:	83 29 60 18 	sll  %g5, 0x18, %g1
    3604:	8a 13 40 06 	or  %o5, %g6, %g5
    3608:	c4 3a 20 03 	std  %g2, [ %o0 + 3 ]
    360c:	c8 3a 20 0b 	std  %g4, [ %o0 + 0xb ]
    3610:	96 a2 e0 10 	subcc  %o3, 0x10, %o3
    3614:	92 02 60 10 	add  %o1, 0x10, %o1
    3618:	12 bf ff ee 	bne  35d0 <__GI_memcpy+0xdb4>
    361c:	90 02 20 10 	add  %o0, 0x10, %o0
    3620:	85 30 60 18 	srl  %g1, 0x18, %g2
    3624:	c4 2a 20 03 	stb  %g2, [ %o0 + 3 ]
    3628:	10 80 00 5f 	b  37a4 <__GI_memcpy+0xf88>
    362c:	90 02 20 04 	add  %o0, 4, %o0
    3630:	c4 1a 60 00 	ldd  [ %o1 ], %g2
    3634:	c8 1a 60 08 	ldd  [ %o1 + 8 ], %g4
    3638:	99 30 a0 10 	srl  %g2, 0x10, %o4
    363c:	9b 30 e0 10 	srl  %g3, 0x10, %o5
    3640:	8d 28 a0 10 	sll  %g2, 0x10, %g6
    3644:	84 13 00 01 	or  %o4, %g1, %g2
    3648:	83 28 e0 10 	sll  %g3, 0x10, %g1
    364c:	86 13 40 06 	or  %o5, %g6, %g3
    3650:	99 31 20 10 	srl  %g4, 0x10, %o4
    3654:	9b 31 60 10 	srl  %g5, 0x10, %o5
    3658:	8d 29 20 10 	sll  %g4, 0x10, %g6
    365c:	88 13 00 01 	or  %o4, %g1, %g4
    3660:	83 29 60 10 	sll  %g5, 0x10, %g1
    3664:	8a 13 40 06 	or  %o5, %g6, %g5
    3668:	c4 3a 3f fe 	std  %g2, [ %o0 + -2 ]
    366c:	c8 3a 20 06 	std  %g4, [ %o0 + 6 ]
    3670:	c4 1a 60 10 	ldd  [ %o1 + 0x10 ], %g2
    3674:	c8 1a 60 18 	ldd  [ %o1 + 0x18 ], %g4
    3678:	99 30 a0 10 	srl  %g2, 0x10, %o4
    367c:	9b 30 e0 10 	srl  %g3, 0x10, %o5
    3680:	8d 28 a0 10 	sll  %g2, 0x10, %g6
    3684:	84 13 00 01 	or  %o4, %g1, %g2
    3688:	83 28 e0 10 	sll  %g3, 0x10, %g1
    368c:	86 13 40 06 	or  %o5, %g6, %g3
    3690:	99 31 20 10 	srl  %g4, 0x10, %o4
    3694:	9b 31 60 10 	srl  %g5, 0x10, %o5
    3698:	8d 29 20 10 	sll  %g4, 0x10, %g6
    369c:	88 13 00 01 	or  %o4, %g1, %g4
    36a0:	83 29 60 10 	sll  %g5, 0x10, %g1
    36a4:	8a 13 40 06 	or  %o5, %g6, %g5
    36a8:	c4 3a 20 0e 	std  %g2, [ %o0 + 0xe ]
    36ac:	c8 3a 20 16 	std  %g4, [ %o0 + 0x16 ]
    36b0:	c4 1a 60 20 	ldd  [ %o1 + 0x20 ], %g2
    36b4:	c8 1a 60 28 	ldd  [ %o1 + 0x28 ], %g4
    36b8:	99 30 a0 10 	srl  %g2, 0x10, %o4
    36bc:	9b 30 e0 10 	srl  %g3, 0x10, %o5
    36c0:	8d 28 a0 10 	sll  %g2, 0x10, %g6
    36c4:	84 13 00 01 	or  %o4, %g1, %g2
    36c8:	83 28 e0 10 	sll  %g3, 0x10, %g1
    36cc:	86 13 40 06 	or  %o5, %g6, %g3
    36d0:	99 31 20 10 	srl  %g4, 0x10, %o4
    36d4:	9b 31 60 10 	srl  %g5, 0x10, %o5
    36d8:	8d 29 20 10 	sll  %g4, 0x10, %g6
    36dc:	88 13 00 01 	or  %o4, %g1, %g4
    36e0:	83 29 60 10 	sll  %g5, 0x10, %g1
    36e4:	8a 13 40 06 	or  %o5, %g6, %g5
    36e8:	c4 3a 20 1e 	std  %g2, [ %o0 + 0x1e ]
    36ec:	c8 3a 20 26 	std  %g4, [ %o0 + 0x26 ]
    36f0:	c4 1a 60 30 	ldd  [ %o1 + 0x30 ], %g2
    36f4:	c8 1a 60 38 	ldd  [ %o1 + 0x38 ], %g4
    36f8:	99 30 a0 10 	srl  %g2, 0x10, %o4
    36fc:	9b 30 e0 10 	srl  %g3, 0x10, %o5
    3700:	8d 28 a0 10 	sll  %g2, 0x10, %g6
    3704:	84 13 00 01 	or  %o4, %g1, %g2
    3708:	83 28 e0 10 	sll  %g3, 0x10, %g1
    370c:	86 13 40 06 	or  %o5, %g6, %g3
    3710:	99 31 20 10 	srl  %g4, 0x10, %o4
    3714:	9b 31 60 10 	srl  %g5, 0x10, %o5
    3718:	8d 29 20 10 	sll  %g4, 0x10, %g6
    371c:	88 13 00 01 	or  %o4, %g1, %g4
    3720:	83 29 60 10 	sll  %g5, 0x10, %g1
    3724:	8a 13 40 06 	or  %o5, %g6, %g5
    3728:	c4 3a 20 2e 	std  %g2, [ %o0 + 0x2e ]
    372c:	c8 3a 20 36 	std  %g4, [ %o0 + 0x36 ]
    3730:	96 a2 e0 40 	subcc  %o3, 0x40, %o3
    3734:	92 02 60 40 	add  %o1, 0x40, %o1
    3738:	12 bf ff be 	bne  3630 <__GI_memcpy+0xe14>
    373c:	90 02 20 40 	add  %o0, 0x40, %o0
    3740:	96 8a a0 30 	andcc  %o2, 0x30, %o3
    3744:	22 80 00 17 	be,a   37a0 <__GI_memcpy+0xf84>
    3748:	85 30 60 10 	srl  %g1, 0x10, %g2
    374c:	c4 1a 60 00 	ldd  [ %o1 ], %g2
    3750:	c8 1a 60 08 	ldd  [ %o1 + 8 ], %g4
    3754:	99 30 a0 10 	srl  %g2, 0x10, %o4
    3758:	9b 30 e0 10 	srl  %g3, 0x10, %o5
    375c:	8d 28 a0 10 	sll  %g2, 0x10, %g6
    3760:	84 13 00 01 	or  %o4, %g1, %g2
    3764:	83 28 e0 10 	sll  %g3, 0x10, %g1
    3768:	86 13 40 06 	or  %o5, %g6, %g3
    376c:	99 31 20 10 	srl  %g4, 0x10, %o4
    3770:	9b 31 60 10 	srl  %g5, 0x10, %o5
    3774:	8d 29 20 10 	sll  %g4, 0x10, %g6
    3778:	88 13 00 01 	or  %o4, %g1, %g4
    377c:	83 29 60 10 	sll  %g5, 0x10, %g1
    3780:	8a 13 40 06 	or  %o5, %g6, %g5
    3784:	c4 3a 3f fe 	std  %g2, [ %o0 + -2 ]
    3788:	c8 3a 20 06 	std  %g4, [ %o0 + 6 ]
    378c:	96 a2 e0 10 	subcc  %o3, 0x10, %o3
    3790:	92 02 60 10 	add  %o1, 0x10, %o1
    3794:	12 bf ff ee 	bne  374c <__GI_memcpy+0xf30>
    3798:	90 02 20 10 	add  %o0, 0x10, %o0
    379c:	85 30 60 10 	srl  %g1, 0x10, %g2
    37a0:	c4 32 3f fe 	sth  %g2, [ %o0 + -2 ]
    37a4:	96 0a a0 0e 	and  %o2, 0xe, %o3
    37a8:	84 10 00 0f 	mov  %o7, %g2
    37ac:	99 2a e0 03 	sll  %o3, 3, %o4
    37b0:	90 02 00 0b 	add  %o0, %o3, %o0
    37b4:	40 00 00 33 	call  3880 <__GI_memcpy+0x1064>
    37b8:	92 02 40 0b 	add  %o1, %o3, %o1
    37bc:	9e 10 00 02 	mov  %g2, %o7
    37c0:	81 c3 60 84 	jmp  %o5 + 0x84
    37c4:	80 8a a0 01 	btst  1, %o2
    37c8:	c4 0a 7f f2 	ldub  [ %o1 + -14 ], %g2
    37cc:	c6 0a 7f f3 	ldub  [ %o1 + -13 ], %g3
    37d0:	c4 2a 3f f2 	stb  %g2, [ %o0 + -14 ]
    37d4:	c6 2a 3f f3 	stb  %g3, [ %o0 + -13 ]
    37d8:	c4 0a 7f f4 	ldub  [ %o1 + -12 ], %g2
    37dc:	c6 0a 7f f5 	ldub  [ %o1 + -11 ], %g3
    37e0:	c4 2a 3f f4 	stb  %g2, [ %o0 + -12 ]
    37e4:	c6 2a 3f f5 	stb  %g3, [ %o0 + -11 ]
    37e8:	c4 0a 7f f6 	ldub  [ %o1 + -10 ], %g2
    37ec:	c6 0a 7f f7 	ldub  [ %o1 + -9 ], %g3
    37f0:	c4 2a 3f f6 	stb  %g2, [ %o0 + -10 ]
    37f4:	c6 2a 3f f7 	stb  %g3, [ %o0 + -9 ]
    37f8:	c4 0a 7f f8 	ldub  [ %o1 + -8 ], %g2
    37fc:	c6 0a 7f f9 	ldub  [ %o1 + -7 ], %g3
    3800:	c4 2a 3f f8 	stb  %g2, [ %o0 + -8 ]
    3804:	c6 2a 3f f9 	stb  %g3, [ %o0 + -7 ]
    3808:	c4 0a 7f fa 	ldub  [ %o1 + -6 ], %g2
    380c:	c6 0a 7f fb 	ldub  [ %o1 + -5 ], %g3
    3810:	c4 2a 3f fa 	stb  %g2, [ %o0 + -6 ]
    3814:	c6 2a 3f fb 	stb  %g3, [ %o0 + -5 ]
    3818:	c4 0a 7f fc 	ldub  [ %o1 + -4 ], %g2
    381c:	c6 0a 7f fd 	ldub  [ %o1 + -3 ], %g3
    3820:	c4 2a 3f fc 	stb  %g2, [ %o0 + -4 ]
    3824:	c6 2a 3f fd 	stb  %g3, [ %o0 + -3 ]
    3828:	c4 0a 7f fe 	ldub  [ %o1 + -2 ], %g2
    382c:	c6 0a 7f ff 	ldub  [ %o1 + -1 ], %g3
    3830:	c4 2a 3f fe 	stb  %g2, [ %o0 + -2 ]
    3834:	c6 2a 3f ff 	stb  %g3, [ %o0 + -1 ]
    3838:	02 80 00 04 	be  3848 <__GI_memcpy+0x102c>
    383c:	01 00 00 00 	nop 
    3840:	c4 0a 40 00 	ldub  [ %o1 ], %g2
    3844:	c4 2a 00 00 	stb  %g2, [ %o0 ]
    3848:	81 c3 e0 08 	retl 
    384c:	d0 03 a0 40 	ld  [ %sp + 0x40 ], %o0
    3850:	12 bf ff d5 	bne  37a4 <__GI_memcpy+0xf88>
    3854:	80 8a a0 08 	btst  8, %o2
    3858:	02 80 00 08 	be  3878 <__GI_memcpy+0x105c>
    385c:	80 8a a0 04 	btst  4, %o2
    3860:	c4 02 60 00 	ld  [ %o1 ], %g2
    3864:	c6 02 60 04 	ld  [ %o1 + 4 ], %g3
    3868:	92 02 60 08 	add  %o1, 8, %o1
    386c:	c4 22 20 00 	st  %g2, [ %o0 ]
    3870:	c6 22 20 04 	st  %g3, [ %o0 + 4 ]
    3874:	90 02 20 08 	add  %o0, 8, %o0
    3878:	10 bf fc 6d 	b  2a2c <__GI_memcpy+0x210>
    387c:	82 10 00 0a 	mov  %o2, %g1
    3880:	81 c3 e0 08 	retl 
    3884:	9a 23 c0 0c 	sub  %o7, %o4, %o5
    3888:	81 c3 e0 08 	retl 
    388c:	9a 23 c0 06 	sub  %o7, %g6, %o5
	...

00003c00 <page_table_setup>:
    3c00:	03 00 00 10 	sethi  %hi(0x4000), %g1
    3c04:	82 10 60 00 	mov  %g1, %g1	! 4000 <PAGE_TABLE_BASE>
    3c08:	84 10 20 8e 	mov  0x8e, %g2
    3c0c:	8a 10 20 00 	clr  %g5
    3c10:	86 01 40 01 	add  %g5, %g1, %g3
    3c14:	c4 20 c0 00 	st  %g2, [ %g3 ]
    3c18:	81 c3 e0 08 	retl 
    3c1c:	01 00 00 00 	nop 

00003c20 <set_context_table_pointer>:
    3c20:	03 00 00 10 	sethi  %hi(0x4000), %g1
    3c24:	82 10 60 00 	mov  %g1, %g1	! 4000 <PAGE_TABLE_BASE>
    3c28:	8a 10 20 00 	clr  %g5
    3c2c:	84 01 40 01 	add  %g5, %g1, %g2
    3c30:	85 30 a0 04 	srl  %g2, 4, %g2
    3c34:	84 10 a0 01 	or  %g2, 1, %g2
    3c38:	86 10 21 00 	mov  0x100, %g3
    3c3c:	c4 a0 c0 80 	sta  %g2, [ %g3 ] #ASI_N
    3c40:	81 c3 e0 08 	retl 
    3c44:	01 00 00 00 	nop 
    3c48:	01 00 00 00 	nop 
    3c4c:	01 00 00 00 	nop 
    3c50:	01 00 00 00 	nop 
    3c54:	01 00 00 00 	nop 
    3c58:	01 00 00 00 	nop 
    3c5c:	01 00 00 00 	nop 
    3c60:	01 00 00 00 	nop 
    3c64:	01 00 00 00 	nop 
    3c68:	01 00 00 00 	nop 
    3c6c:	01 00 00 00 	nop 
    3c70:	01 00 00 00 	nop 
    3c74:	01 00 00 00 	nop 
    3c78:	01 00 00 00 	nop 
    3c7c:	01 00 00 00 	nop 
    3c80:	01 00 00 00 	nop 
    3c84:	01 00 00 00 	nop 
    3c88:	01 00 00 00 	nop 
    3c8c:	01 00 00 00 	nop 
    3c90:	01 00 00 00 	nop 
    3c94:	01 00 00 00 	nop 
    3c98:	01 00 00 00 	nop 
    3c9c:	01 00 00 00 	nop 
    3ca0:	01 00 00 00 	nop 
    3ca4:	01 00 00 00 	nop 
    3ca8:	01 00 00 00 	nop 
    3cac:	01 00 00 00 	nop 
    3cb0:	01 00 00 00 	nop 
    3cb4:	01 00 00 00 	nop 
    3cb8:	01 00 00 00 	nop 
    3cbc:	01 00 00 00 	nop 
    3cc0:	01 00 00 00 	nop 
    3cc4:	01 00 00 00 	nop 
    3cc8:	01 00 00 00 	nop 
    3ccc:	01 00 00 00 	nop 
    3cd0:	01 00 00 00 	nop 
    3cd4:	01 00 00 00 	nop 
    3cd8:	01 00 00 00 	nop 
    3cdc:	01 00 00 00 	nop 
    3ce0:	01 00 00 00 	nop 
    3ce4:	01 00 00 00 	nop 
    3ce8:	01 00 00 00 	nop 
    3cec:	01 00 00 00 	nop 
    3cf0:	01 00 00 00 	nop 
    3cf4:	01 00 00 00 	nop 
    3cf8:	01 00 00 00 	nop 
    3cfc:	01 00 00 00 	nop 
    3d00:	01 00 00 00 	nop 
    3d04:	01 00 00 00 	nop 
    3d08:	01 00 00 00 	nop 
    3d0c:	01 00 00 00 	nop 
    3d10:	01 00 00 00 	nop 
    3d14:	01 00 00 00 	nop 
    3d18:	01 00 00 00 	nop 
    3d1c:	01 00 00 00 	nop 
    3d20:	01 00 00 00 	nop 
    3d24:	01 00 00 00 	nop 
    3d28:	01 00 00 00 	nop 
    3d2c:	01 00 00 00 	nop 
    3d30:	01 00 00 00 	nop 
    3d34:	01 00 00 00 	nop 
    3d38:	01 00 00 00 	nop 
    3d3c:	01 00 00 00 	nop 
    3d40:	01 00 00 00 	nop 
    3d44:	01 00 00 00 	nop 
    3d48:	01 00 00 00 	nop 
    3d4c:	01 00 00 00 	nop 
    3d50:	01 00 00 00 	nop 
    3d54:	01 00 00 00 	nop 
    3d58:	01 00 00 00 	nop 
    3d5c:	01 00 00 00 	nop 
    3d60:	01 00 00 00 	nop 
    3d64:	01 00 00 00 	nop 
    3d68:	01 00 00 00 	nop 
    3d6c:	01 00 00 00 	nop 
    3d70:	01 00 00 00 	nop 
    3d74:	01 00 00 00 	nop 
    3d78:	01 00 00 00 	nop 
    3d7c:	01 00 00 00 	nop 
    3d80:	01 00 00 00 	nop 
    3d84:	01 00 00 00 	nop 
    3d88:	01 00 00 00 	nop 
    3d8c:	01 00 00 00 	nop 
    3d90:	01 00 00 00 	nop 
    3d94:	01 00 00 00 	nop 
    3d98:	01 00 00 00 	nop 
    3d9c:	01 00 00 00 	nop 
    3da0:	01 00 00 00 	nop 
    3da4:	01 00 00 00 	nop 
    3da8:	01 00 00 00 	nop 
    3dac:	01 00 00 00 	nop 
    3db0:	01 00 00 00 	nop 
    3db4:	01 00 00 00 	nop 
    3db8:	01 00 00 00 	nop 
    3dbc:	01 00 00 00 	nop 
    3dc0:	01 00 00 00 	nop 
    3dc4:	01 00 00 00 	nop 
    3dc8:	01 00 00 00 	nop 
    3dcc:	01 00 00 00 	nop 
    3dd0:	01 00 00 00 	nop 
    3dd4:	01 00 00 00 	nop 
    3dd8:	01 00 00 00 	nop 
    3ddc:	01 00 00 00 	nop 
    3de0:	01 00 00 00 	nop 
    3de4:	01 00 00 00 	nop 
    3de8:	01 00 00 00 	nop 
    3dec:	01 00 00 00 	nop 
    3df0:	01 00 00 00 	nop 
    3df4:	01 00 00 00 	nop 
    3df8:	01 00 00 00 	nop 
    3dfc:	01 00 00 00 	nop 
    3e00:	01 00 00 00 	nop 
    3e04:	01 00 00 00 	nop 
    3e08:	01 00 00 00 	nop 
    3e0c:	01 00 00 00 	nop 
    3e10:	01 00 00 00 	nop 
    3e14:	01 00 00 00 	nop 
    3e18:	01 00 00 00 	nop 
    3e1c:	01 00 00 00 	nop 
    3e20:	01 00 00 00 	nop 
    3e24:	01 00 00 00 	nop 
    3e28:	01 00 00 00 	nop 
    3e2c:	01 00 00 00 	nop 
    3e30:	01 00 00 00 	nop 
    3e34:	01 00 00 00 	nop 
    3e38:	01 00 00 00 	nop 
    3e3c:	01 00 00 00 	nop 
    3e40:	01 00 00 00 	nop 
    3e44:	01 00 00 00 	nop 
    3e48:	01 00 00 00 	nop 
    3e4c:	01 00 00 00 	nop 
    3e50:	01 00 00 00 	nop 
    3e54:	01 00 00 00 	nop 
    3e58:	01 00 00 00 	nop 
    3e5c:	01 00 00 00 	nop 
    3e60:	01 00 00 00 	nop 
    3e64:	01 00 00 00 	nop 
    3e68:	01 00 00 00 	nop 
    3e6c:	01 00 00 00 	nop 
    3e70:	01 00 00 00 	nop 
    3e74:	01 00 00 00 	nop 
    3e78:	01 00 00 00 	nop 
    3e7c:	01 00 00 00 	nop 
    3e80:	01 00 00 00 	nop 
    3e84:	01 00 00 00 	nop 
    3e88:	01 00 00 00 	nop 
    3e8c:	01 00 00 00 	nop 
    3e90:	01 00 00 00 	nop 
    3e94:	01 00 00 00 	nop 
    3e98:	01 00 00 00 	nop 
    3e9c:	01 00 00 00 	nop 
    3ea0:	01 00 00 00 	nop 
    3ea4:	01 00 00 00 	nop 
    3ea8:	01 00 00 00 	nop 
    3eac:	01 00 00 00 	nop 
    3eb0:	01 00 00 00 	nop 
    3eb4:	01 00 00 00 	nop 
    3eb8:	01 00 00 00 	nop 
    3ebc:	01 00 00 00 	nop 
    3ec0:	01 00 00 00 	nop 
    3ec4:	01 00 00 00 	nop 
    3ec8:	01 00 00 00 	nop 
    3ecc:	01 00 00 00 	nop 
    3ed0:	01 00 00 00 	nop 
    3ed4:	01 00 00 00 	nop 
    3ed8:	01 00 00 00 	nop 
    3edc:	01 00 00 00 	nop 
    3ee0:	01 00 00 00 	nop 
    3ee4:	01 00 00 00 	nop 
    3ee8:	01 00 00 00 	nop 
    3eec:	01 00 00 00 	nop 
    3ef0:	01 00 00 00 	nop 
    3ef4:	01 00 00 00 	nop 
    3ef8:	01 00 00 00 	nop 
    3efc:	01 00 00 00 	nop 
    3f00:	01 00 00 00 	nop 
    3f04:	01 00 00 00 	nop 
    3f08:	01 00 00 00 	nop 
    3f0c:	01 00 00 00 	nop 
    3f10:	01 00 00 00 	nop 
    3f14:	01 00 00 00 	nop 
    3f18:	01 00 00 00 	nop 
    3f1c:	01 00 00 00 	nop 
    3f20:	01 00 00 00 	nop 
    3f24:	01 00 00 00 	nop 
    3f28:	01 00 00 00 	nop 
    3f2c:	01 00 00 00 	nop 
    3f30:	01 00 00 00 	nop 
    3f34:	01 00 00 00 	nop 
    3f38:	01 00 00 00 	nop 
    3f3c:	01 00 00 00 	nop 
    3f40:	01 00 00 00 	nop 
    3f44:	01 00 00 00 	nop 
    3f48:	01 00 00 00 	nop 
    3f4c:	01 00 00 00 	nop 
    3f50:	01 00 00 00 	nop 
    3f54:	01 00 00 00 	nop 
    3f58:	01 00 00 00 	nop 
    3f5c:	01 00 00 00 	nop 
    3f60:	01 00 00 00 	nop 
    3f64:	01 00 00 00 	nop 
    3f68:	01 00 00 00 	nop 
    3f6c:	01 00 00 00 	nop 
    3f70:	01 00 00 00 	nop 
    3f74:	01 00 00 00 	nop 
    3f78:	01 00 00 00 	nop 
    3f7c:	01 00 00 00 	nop 
    3f80:	01 00 00 00 	nop 
    3f84:	01 00 00 00 	nop 
    3f88:	01 00 00 00 	nop 
    3f8c:	01 00 00 00 	nop 
    3f90:	01 00 00 00 	nop 
    3f94:	01 00 00 00 	nop 
    3f98:	01 00 00 00 	nop 
    3f9c:	01 00 00 00 	nop 
    3fa0:	01 00 00 00 	nop 
    3fa4:	01 00 00 00 	nop 
    3fa8:	01 00 00 00 	nop 
    3fac:	01 00 00 00 	nop 
    3fb0:	01 00 00 00 	nop 
    3fb4:	01 00 00 00 	nop 
    3fb8:	01 00 00 00 	nop 
    3fbc:	01 00 00 00 	nop 
    3fc0:	01 00 00 00 	nop 
    3fc4:	01 00 00 00 	nop 
    3fc8:	01 00 00 00 	nop 
    3fcc:	01 00 00 00 	nop 
    3fd0:	01 00 00 00 	nop 
    3fd4:	01 00 00 00 	nop 
    3fd8:	01 00 00 00 	nop 
    3fdc:	01 00 00 00 	nop 
    3fe0:	01 00 00 00 	nop 
    3fe4:	01 00 00 00 	nop 
    3fe8:	01 00 00 00 	nop 
    3fec:	01 00 00 00 	nop 
    3ff0:	01 00 00 00 	nop 
    3ff4:	01 00 00 00 	nop 
    3ff8:	01 00 00 00 	nop 
    3ffc:	01 00 00 00 	nop 

00004000 <PAGE_TABLE_BASE>:
	...

00005000 <window_overflow_trap_handler>:
    5000:	a7 50 00 00 	rd  %wim, %l3
    5004:	a9 2c e0 07 	sll  %l3, 7, %l4
    5008:	a7 34 e0 01 	srl  %l3, 1, %l3
    500c:	a6 14 c0 14 	or  %l3, %l4, %l3
    5010:	a6 0c e0 ff 	and  %l3, 0xff, %l3
    5014:	81 90 00 00 	mov  %g0, %wim
    5018:	01 00 00 00 	nop 
    501c:	01 00 00 00 	nop 
    5020:	01 00 00 00 	nop 
    5024:	81 e0 00 00 	save 
    5028:	e0 3b a0 00 	std  %l0, [ %sp ]
    502c:	e4 3b a0 08 	std  %l2, [ %sp + 8 ]
    5030:	e8 3b a0 10 	std  %l4, [ %sp + 0x10 ]
    5034:	ec 3b a0 18 	std  %l6, [ %sp + 0x18 ]
    5038:	f0 3b a0 20 	std  %i0, [ %sp + 0x20 ]
    503c:	f4 3b a0 28 	std  %i2, [ %sp + 0x28 ]
    5040:	f8 3b a0 30 	std  %i4, [ %sp + 0x30 ]
    5044:	fc 3b a0 38 	std  %fp, [ %sp + 0x38 ]
    5048:	81 e8 00 00 	restore 
    504c:	81 90 00 13 	mov  %l3, %wim
    5050:	01 00 00 00 	nop 
    5054:	01 00 00 00 	nop 
    5058:	01 00 00 00 	nop 
    505c:	81 c4 40 00 	jmp  %l1
    5060:	81 cc 80 00 	rett  %l2

00005064 <window_underflow_trap_handler>:
    5064:	a7 50 00 00 	rd  %wim, %l3
    5068:	a9 34 e0 07 	srl  %l3, 7, %l4
    506c:	a7 2c e0 01 	sll  %l3, 1, %l3
    5070:	a6 14 c0 14 	or  %l3, %l4, %l3
    5074:	a6 0c e0 ff 	and  %l3, 0xff, %l3
    5078:	81 90 00 00 	mov  %g0, %wim
    507c:	01 00 00 00 	nop 
    5080:	01 00 00 00 	nop 
    5084:	01 00 00 00 	nop 
    5088:	81 e8 00 00 	restore 
    508c:	81 e8 00 00 	restore 
    5090:	e0 1b a0 00 	ldd  [ %sp ], %l0
    5094:	e4 1b a0 08 	ldd  [ %sp + 8 ], %l2
    5098:	e8 1b a0 10 	ldd  [ %sp + 0x10 ], %l4
    509c:	ec 1b a0 18 	ldd  [ %sp + 0x18 ], %l6
    50a0:	f0 1b a0 20 	ldd  [ %sp + 0x20 ], %i0
    50a4:	f4 1b a0 28 	ldd  [ %sp + 0x28 ], %i2
    50a8:	f8 1b a0 30 	ldd  [ %sp + 0x30 ], %i4
    50ac:	fc 1b a0 38 	ldd  [ %sp + 0x38 ], %fp
    50b0:	81 e0 00 00 	save 
    50b4:	81 e0 00 00 	save 
    50b8:	81 90 00 13 	mov  %l3, %wim
    50bc:	01 00 00 00 	nop 
    50c0:	01 00 00 00 	nop 
    50c4:	01 00 00 00 	nop 
    50c8:	81 c4 40 00 	jmp  %l1
    50cc:	81 cc 80 00 	rett  %l2
    50d0:	01 00 00 00 	nop 
    50d4:	01 00 00 00 	nop 
    50d8:	01 00 00 00 	nop 
    50dc:	01 00 00 00 	nop 
    50e0:	01 00 00 00 	nop 
    50e4:	01 00 00 00 	nop 
    50e8:	01 00 00 00 	nop 
    50ec:	01 00 00 00 	nop 
    50f0:	01 00 00 00 	nop 
    50f4:	01 00 00 00 	nop 
    50f8:	01 00 00 00 	nop 
    50fc:	01 00 00 00 	nop 
    5100:	01 00 00 00 	nop 
    5104:	01 00 00 00 	nop 
    5108:	01 00 00 00 	nop 
    510c:	01 00 00 00 	nop 
    5110:	01 00 00 00 	nop 
    5114:	01 00 00 00 	nop 
    5118:	01 00 00 00 	nop 
    511c:	01 00 00 00 	nop 
    5120:	01 00 00 00 	nop 
    5124:	01 00 00 00 	nop 
    5128:	01 00 00 00 	nop 
    512c:	01 00 00 00 	nop 
    5130:	01 00 00 00 	nop 
    5134:	01 00 00 00 	nop 
    5138:	01 00 00 00 	nop 
    513c:	01 00 00 00 	nop 
    5140:	01 00 00 00 	nop 
    5144:	01 00 00 00 	nop 
    5148:	01 00 00 00 	nop 
    514c:	01 00 00 00 	nop 
    5150:	01 00 00 00 	nop 
    5154:	01 00 00 00 	nop 
    5158:	01 00 00 00 	nop 
    515c:	01 00 00 00 	nop 
    5160:	01 00 00 00 	nop 
    5164:	01 00 00 00 	nop 
    5168:	01 00 00 00 	nop 
    516c:	01 00 00 00 	nop 
    5170:	01 00 00 00 	nop 
    5174:	01 00 00 00 	nop 
    5178:	01 00 00 00 	nop 
    517c:	01 00 00 00 	nop 
    5180:	01 00 00 00 	nop 
    5184:	01 00 00 00 	nop 
    5188:	01 00 00 00 	nop 
    518c:	01 00 00 00 	nop 
    5190:	01 00 00 00 	nop 
    5194:	01 00 00 00 	nop 
    5198:	01 00 00 00 	nop 
    519c:	01 00 00 00 	nop 
    51a0:	01 00 00 00 	nop 
    51a4:	01 00 00 00 	nop 
    51a8:	01 00 00 00 	nop 
    51ac:	01 00 00 00 	nop 
    51b0:	01 00 00 00 	nop 
    51b4:	01 00 00 00 	nop 
    51b8:	01 00 00 00 	nop 
    51bc:	01 00 00 00 	nop 
    51c0:	01 00 00 00 	nop 
    51c4:	01 00 00 00 	nop 
    51c8:	01 00 00 00 	nop 
    51cc:	01 00 00 00 	nop 
    51d0:	01 00 00 00 	nop 
    51d4:	01 00 00 00 	nop 
    51d8:	01 00 00 00 	nop 
    51dc:	01 00 00 00 	nop 
    51e0:	01 00 00 00 	nop 
    51e4:	01 00 00 00 	nop 
    51e8:	01 00 00 00 	nop 
    51ec:	01 00 00 00 	nop 
    51f0:	01 00 00 00 	nop 
    51f4:	01 00 00 00 	nop 
    51f8:	01 00 00 00 	nop 
    51fc:	01 00 00 00 	nop 
    5200:	01 00 00 00 	nop 
    5204:	01 00 00 00 	nop 
    5208:	01 00 00 00 	nop 
    520c:	01 00 00 00 	nop 
    5210:	01 00 00 00 	nop 
    5214:	01 00 00 00 	nop 
    5218:	01 00 00 00 	nop 
    521c:	01 00 00 00 	nop 
    5220:	01 00 00 00 	nop 
    5224:	01 00 00 00 	nop 
    5228:	01 00 00 00 	nop 
    522c:	01 00 00 00 	nop 
    5230:	01 00 00 00 	nop 
    5234:	01 00 00 00 	nop 
    5238:	01 00 00 00 	nop 
    523c:	01 00 00 00 	nop 
    5240:	01 00 00 00 	nop 
    5244:	01 00 00 00 	nop 
    5248:	01 00 00 00 	nop 
    524c:	01 00 00 00 	nop 
    5250:	01 00 00 00 	nop 
    5254:	01 00 00 00 	nop 
    5258:	01 00 00 00 	nop 
    525c:	01 00 00 00 	nop 
    5260:	01 00 00 00 	nop 
    5264:	01 00 00 00 	nop 
    5268:	01 00 00 00 	nop 
    526c:	01 00 00 00 	nop 
    5270:	01 00 00 00 	nop 
    5274:	01 00 00 00 	nop 
    5278:	01 00 00 00 	nop 
    527c:	01 00 00 00 	nop 
    5280:	01 00 00 00 	nop 
    5284:	01 00 00 00 	nop 
    5288:	01 00 00 00 	nop 
    528c:	01 00 00 00 	nop 
    5290:	01 00 00 00 	nop 
    5294:	01 00 00 00 	nop 
    5298:	01 00 00 00 	nop 
    529c:	01 00 00 00 	nop 
    52a0:	01 00 00 00 	nop 
    52a4:	01 00 00 00 	nop 
    52a8:	01 00 00 00 	nop 
    52ac:	01 00 00 00 	nop 
    52b0:	01 00 00 00 	nop 
    52b4:	01 00 00 00 	nop 
    52b8:	01 00 00 00 	nop 
    52bc:	01 00 00 00 	nop 
    52c0:	01 00 00 00 	nop 
    52c4:	01 00 00 00 	nop 
    52c8:	01 00 00 00 	nop 
    52cc:	01 00 00 00 	nop 
    52d0:	01 00 00 00 	nop 
    52d4:	01 00 00 00 	nop 
    52d8:	01 00 00 00 	nop 
    52dc:	01 00 00 00 	nop 
    52e0:	01 00 00 00 	nop 
    52e4:	01 00 00 00 	nop 
    52e8:	01 00 00 00 	nop 
    52ec:	01 00 00 00 	nop 
    52f0:	01 00 00 00 	nop 
    52f4:	01 00 00 00 	nop 
    52f8:	01 00 00 00 	nop 
    52fc:	01 00 00 00 	nop 
    5300:	01 00 00 00 	nop 
    5304:	01 00 00 00 	nop 
    5308:	01 00 00 00 	nop 
    530c:	01 00 00 00 	nop 
    5310:	01 00 00 00 	nop 
    5314:	01 00 00 00 	nop 
    5318:	01 00 00 00 	nop 
    531c:	01 00 00 00 	nop 
    5320:	01 00 00 00 	nop 
    5324:	01 00 00 00 	nop 
    5328:	01 00 00 00 	nop 
    532c:	01 00 00 00 	nop 
    5330:	01 00 00 00 	nop 
    5334:	01 00 00 00 	nop 
    5338:	01 00 00 00 	nop 
    533c:	01 00 00 00 	nop 
    5340:	01 00 00 00 	nop 
    5344:	01 00 00 00 	nop 
    5348:	01 00 00 00 	nop 
    534c:	01 00 00 00 	nop 
    5350:	01 00 00 00 	nop 
    5354:	01 00 00 00 	nop 
    5358:	01 00 00 00 	nop 
    535c:	01 00 00 00 	nop 
    5360:	01 00 00 00 	nop 
    5364:	01 00 00 00 	nop 
    5368:	01 00 00 00 	nop 
    536c:	01 00 00 00 	nop 
    5370:	01 00 00 00 	nop 
    5374:	01 00 00 00 	nop 
    5378:	01 00 00 00 	nop 
    537c:	01 00 00 00 	nop 
    5380:	01 00 00 00 	nop 
    5384:	01 00 00 00 	nop 
    5388:	01 00 00 00 	nop 
    538c:	01 00 00 00 	nop 
    5390:	01 00 00 00 	nop 
    5394:	01 00 00 00 	nop 
    5398:	01 00 00 00 	nop 
    539c:	01 00 00 00 	nop 
    53a0:	01 00 00 00 	nop 
    53a4:	01 00 00 00 	nop 
    53a8:	01 00 00 00 	nop 
    53ac:	01 00 00 00 	nop 
    53b0:	01 00 00 00 	nop 
    53b4:	01 00 00 00 	nop 
    53b8:	01 00 00 00 	nop 
    53bc:	01 00 00 00 	nop 
    53c0:	01 00 00 00 	nop 
    53c4:	01 00 00 00 	nop 
    53c8:	01 00 00 00 	nop 
    53cc:	01 00 00 00 	nop 
    53d0:	01 00 00 00 	nop 
    53d4:	01 00 00 00 	nop 
    53d8:	01 00 00 00 	nop 
    53dc:	01 00 00 00 	nop 
    53e0:	01 00 00 00 	nop 
    53e4:	01 00 00 00 	nop 
    53e8:	01 00 00 00 	nop 
    53ec:	01 00 00 00 	nop 
    53f0:	01 00 00 00 	nop 
    53f4:	01 00 00 00 	nop 
    53f8:	01 00 00 00 	nop 
    53fc:	01 00 00 00 	nop 
    5400:	01 00 00 00 	nop 
    5404:	01 00 00 00 	nop 
    5408:	01 00 00 00 	nop 
    540c:	01 00 00 00 	nop 
    5410:	01 00 00 00 	nop 
    5414:	01 00 00 00 	nop 
    5418:	01 00 00 00 	nop 
    541c:	01 00 00 00 	nop 
    5420:	01 00 00 00 	nop 
    5424:	01 00 00 00 	nop 
    5428:	01 00 00 00 	nop 
    542c:	01 00 00 00 	nop 
    5430:	01 00 00 00 	nop 
    5434:	01 00 00 00 	nop 
    5438:	01 00 00 00 	nop 
    543c:	01 00 00 00 	nop 
    5440:	01 00 00 00 	nop 
    5444:	01 00 00 00 	nop 
    5448:	01 00 00 00 	nop 
    544c:	01 00 00 00 	nop 
    5450:	01 00 00 00 	nop 
    5454:	01 00 00 00 	nop 
    5458:	01 00 00 00 	nop 
    545c:	01 00 00 00 	nop 
    5460:	01 00 00 00 	nop 
    5464:	01 00 00 00 	nop 
    5468:	01 00 00 00 	nop 
    546c:	01 00 00 00 	nop 
    5470:	01 00 00 00 	nop 
    5474:	01 00 00 00 	nop 
    5478:	01 00 00 00 	nop 
    547c:	01 00 00 00 	nop 
    5480:	01 00 00 00 	nop 
    5484:	01 00 00 00 	nop 
    5488:	01 00 00 00 	nop 
    548c:	01 00 00 00 	nop 
    5490:	01 00 00 00 	nop 
    5494:	01 00 00 00 	nop 
    5498:	01 00 00 00 	nop 
    549c:	01 00 00 00 	nop 
    54a0:	01 00 00 00 	nop 
    54a4:	01 00 00 00 	nop 
    54a8:	01 00 00 00 	nop 
    54ac:	01 00 00 00 	nop 
    54b0:	01 00 00 00 	nop 
    54b4:	01 00 00 00 	nop 
    54b8:	01 00 00 00 	nop 
    54bc:	01 00 00 00 	nop 
    54c0:	01 00 00 00 	nop 
    54c4:	01 00 00 00 	nop 
    54c8:	01 00 00 00 	nop 
    54cc:	01 00 00 00 	nop 
    54d0:	01 00 00 00 	nop 
    54d4:	01 00 00 00 	nop 
    54d8:	01 00 00 00 	nop 
    54dc:	01 00 00 00 	nop 
    54e0:	01 00 00 00 	nop 
    54e4:	01 00 00 00 	nop 
    54e8:	01 00 00 00 	nop 
    54ec:	01 00 00 00 	nop 
    54f0:	01 00 00 00 	nop 
    54f4:	01 00 00 00 	nop 
    54f8:	01 00 00 00 	nop 
    54fc:	01 00 00 00 	nop 
    5500:	01 00 00 00 	nop 
    5504:	01 00 00 00 	nop 
    5508:	01 00 00 00 	nop 
    550c:	01 00 00 00 	nop 
    5510:	01 00 00 00 	nop 
    5514:	01 00 00 00 	nop 
    5518:	01 00 00 00 	nop 
    551c:	01 00 00 00 	nop 
    5520:	01 00 00 00 	nop 
    5524:	01 00 00 00 	nop 
    5528:	01 00 00 00 	nop 
    552c:	01 00 00 00 	nop 
    5530:	01 00 00 00 	nop 
    5534:	01 00 00 00 	nop 
    5538:	01 00 00 00 	nop 
    553c:	01 00 00 00 	nop 
    5540:	01 00 00 00 	nop 
    5544:	01 00 00 00 	nop 
    5548:	01 00 00 00 	nop 
    554c:	01 00 00 00 	nop 
    5550:	01 00 00 00 	nop 
    5554:	01 00 00 00 	nop 
    5558:	01 00 00 00 	nop 
    555c:	01 00 00 00 	nop 
    5560:	01 00 00 00 	nop 
    5564:	01 00 00 00 	nop 
    5568:	01 00 00 00 	nop 
    556c:	01 00 00 00 	nop 
    5570:	01 00 00 00 	nop 
    5574:	01 00 00 00 	nop 
    5578:	01 00 00 00 	nop 
    557c:	01 00 00 00 	nop 
    5580:	01 00 00 00 	nop 
    5584:	01 00 00 00 	nop 
    5588:	01 00 00 00 	nop 
    558c:	01 00 00 00 	nop 
    5590:	01 00 00 00 	nop 
    5594:	01 00 00 00 	nop 
    5598:	01 00 00 00 	nop 
    559c:	01 00 00 00 	nop 
    55a0:	01 00 00 00 	nop 
    55a4:	01 00 00 00 	nop 
    55a8:	01 00 00 00 	nop 
    55ac:	01 00 00 00 	nop 
    55b0:	01 00 00 00 	nop 
    55b4:	01 00 00 00 	nop 
    55b8:	01 00 00 00 	nop 
    55bc:	01 00 00 00 	nop 
    55c0:	01 00 00 00 	nop 
    55c4:	01 00 00 00 	nop 
    55c8:	01 00 00 00 	nop 
    55cc:	01 00 00 00 	nop 
    55d0:	01 00 00 00 	nop 
    55d4:	01 00 00 00 	nop 
    55d8:	01 00 00 00 	nop 
    55dc:	01 00 00 00 	nop 
    55e0:	01 00 00 00 	nop 
    55e4:	01 00 00 00 	nop 
    55e8:	01 00 00 00 	nop 
    55ec:	01 00 00 00 	nop 
    55f0:	01 00 00 00 	nop 
    55f4:	01 00 00 00 	nop 
    55f8:	01 00 00 00 	nop 
    55fc:	01 00 00 00 	nop 
    5600:	01 00 00 00 	nop 
    5604:	01 00 00 00 	nop 
    5608:	01 00 00 00 	nop 
    560c:	01 00 00 00 	nop 
    5610:	01 00 00 00 	nop 
    5614:	01 00 00 00 	nop 
    5618:	01 00 00 00 	nop 
    561c:	01 00 00 00 	nop 
    5620:	01 00 00 00 	nop 
    5624:	01 00 00 00 	nop 
    5628:	01 00 00 00 	nop 
    562c:	01 00 00 00 	nop 
    5630:	01 00 00 00 	nop 
    5634:	01 00 00 00 	nop 
    5638:	01 00 00 00 	nop 
    563c:	01 00 00 00 	nop 
    5640:	01 00 00 00 	nop 
    5644:	01 00 00 00 	nop 
    5648:	01 00 00 00 	nop 
    564c:	01 00 00 00 	nop 
    5650:	01 00 00 00 	nop 
    5654:	01 00 00 00 	nop 
    5658:	01 00 00 00 	nop 
    565c:	01 00 00 00 	nop 
    5660:	01 00 00 00 	nop 
    5664:	01 00 00 00 	nop 
    5668:	01 00 00 00 	nop 
    566c:	01 00 00 00 	nop 
    5670:	01 00 00 00 	nop 
    5674:	01 00 00 00 	nop 
    5678:	01 00 00 00 	nop 
    567c:	01 00 00 00 	nop 
    5680:	01 00 00 00 	nop 
    5684:	01 00 00 00 	nop 
    5688:	01 00 00 00 	nop 
    568c:	01 00 00 00 	nop 
    5690:	01 00 00 00 	nop 
    5694:	01 00 00 00 	nop 
    5698:	01 00 00 00 	nop 
    569c:	01 00 00 00 	nop 
    56a0:	01 00 00 00 	nop 
    56a4:	01 00 00 00 	nop 
    56a8:	01 00 00 00 	nop 
    56ac:	01 00 00 00 	nop 
    56b0:	01 00 00 00 	nop 
    56b4:	01 00 00 00 	nop 
    56b8:	01 00 00 00 	nop 
    56bc:	01 00 00 00 	nop 
    56c0:	01 00 00 00 	nop 
    56c4:	01 00 00 00 	nop 
    56c8:	01 00 00 00 	nop 
    56cc:	01 00 00 00 	nop 
    56d0:	01 00 00 00 	nop 
    56d4:	01 00 00 00 	nop 
    56d8:	01 00 00 00 	nop 
    56dc:	01 00 00 00 	nop 
    56e0:	01 00 00 00 	nop 
    56e4:	01 00 00 00 	nop 
    56e8:	01 00 00 00 	nop 
    56ec:	01 00 00 00 	nop 
    56f0:	01 00 00 00 	nop 
    56f4:	01 00 00 00 	nop 
    56f8:	01 00 00 00 	nop 
    56fc:	01 00 00 00 	nop 
    5700:	01 00 00 00 	nop 
    5704:	01 00 00 00 	nop 
    5708:	01 00 00 00 	nop 
    570c:	01 00 00 00 	nop 
    5710:	01 00 00 00 	nop 
    5714:	01 00 00 00 	nop 
    5718:	01 00 00 00 	nop 
    571c:	01 00 00 00 	nop 
    5720:	01 00 00 00 	nop 
    5724:	01 00 00 00 	nop 
    5728:	01 00 00 00 	nop 
    572c:	01 00 00 00 	nop 
    5730:	01 00 00 00 	nop 
    5734:	01 00 00 00 	nop 
    5738:	01 00 00 00 	nop 
    573c:	01 00 00 00 	nop 
    5740:	01 00 00 00 	nop 
    5744:	01 00 00 00 	nop 
    5748:	01 00 00 00 	nop 
    574c:	01 00 00 00 	nop 
    5750:	01 00 00 00 	nop 
    5754:	01 00 00 00 	nop 
    5758:	01 00 00 00 	nop 
    575c:	01 00 00 00 	nop 
    5760:	01 00 00 00 	nop 
    5764:	01 00 00 00 	nop 
    5768:	01 00 00 00 	nop 
    576c:	01 00 00 00 	nop 
    5770:	01 00 00 00 	nop 
    5774:	01 00 00 00 	nop 
    5778:	01 00 00 00 	nop 
    577c:	01 00 00 00 	nop 
    5780:	01 00 00 00 	nop 
    5784:	01 00 00 00 	nop 
    5788:	01 00 00 00 	nop 
    578c:	01 00 00 00 	nop 
    5790:	01 00 00 00 	nop 
    5794:	01 00 00 00 	nop 
    5798:	01 00 00 00 	nop 
    579c:	01 00 00 00 	nop 
    57a0:	01 00 00 00 	nop 
    57a4:	01 00 00 00 	nop 
    57a8:	01 00 00 00 	nop 
    57ac:	01 00 00 00 	nop 
    57b0:	01 00 00 00 	nop 
    57b4:	01 00 00 00 	nop 
    57b8:	01 00 00 00 	nop 
    57bc:	01 00 00 00 	nop 
    57c0:	01 00 00 00 	nop 
    57c4:	01 00 00 00 	nop 
    57c8:	01 00 00 00 	nop 
    57cc:	01 00 00 00 	nop 
    57d0:	01 00 00 00 	nop 
    57d4:	01 00 00 00 	nop 
    57d8:	01 00 00 00 	nop 
    57dc:	01 00 00 00 	nop 
    57e0:	01 00 00 00 	nop 
    57e4:	01 00 00 00 	nop 
    57e8:	01 00 00 00 	nop 
    57ec:	01 00 00 00 	nop 
    57f0:	01 00 00 00 	nop 
    57f4:	01 00 00 00 	nop 
    57f8:	01 00 00 00 	nop 
    57fc:	01 00 00 00 	nop 
    5800:	01 00 00 00 	nop 
    5804:	01 00 00 00 	nop 
    5808:	01 00 00 00 	nop 
    580c:	01 00 00 00 	nop 
    5810:	01 00 00 00 	nop 
    5814:	01 00 00 00 	nop 
    5818:	01 00 00 00 	nop 
    581c:	01 00 00 00 	nop 
    5820:	01 00 00 00 	nop 
    5824:	01 00 00 00 	nop 
    5828:	01 00 00 00 	nop 
    582c:	01 00 00 00 	nop 
    5830:	01 00 00 00 	nop 
    5834:	01 00 00 00 	nop 
    5838:	01 00 00 00 	nop 
    583c:	01 00 00 00 	nop 
    5840:	01 00 00 00 	nop 
    5844:	01 00 00 00 	nop 
    5848:	01 00 00 00 	nop 
    584c:	01 00 00 00 	nop 
    5850:	01 00 00 00 	nop 
    5854:	01 00 00 00 	nop 
    5858:	01 00 00 00 	nop 
    585c:	01 00 00 00 	nop 
    5860:	01 00 00 00 	nop 
    5864:	01 00 00 00 	nop 
    5868:	01 00 00 00 	nop 
    586c:	01 00 00 00 	nop 
    5870:	01 00 00 00 	nop 
    5874:	01 00 00 00 	nop 
    5878:	01 00 00 00 	nop 
    587c:	01 00 00 00 	nop 
    5880:	01 00 00 00 	nop 
    5884:	01 00 00 00 	nop 
    5888:	01 00 00 00 	nop 
    588c:	01 00 00 00 	nop 
    5890:	01 00 00 00 	nop 
    5894:	01 00 00 00 	nop 
    5898:	01 00 00 00 	nop 
    589c:	01 00 00 00 	nop 
    58a0:	01 00 00 00 	nop 
    58a4:	01 00 00 00 	nop 
    58a8:	01 00 00 00 	nop 
    58ac:	01 00 00 00 	nop 
    58b0:	01 00 00 00 	nop 
    58b4:	01 00 00 00 	nop 
    58b8:	01 00 00 00 	nop 
    58bc:	01 00 00 00 	nop 
    58c0:	01 00 00 00 	nop 
    58c4:	01 00 00 00 	nop 
    58c8:	01 00 00 00 	nop 
    58cc:	01 00 00 00 	nop 
    58d0:	01 00 00 00 	nop 
    58d4:	01 00 00 00 	nop 
    58d8:	01 00 00 00 	nop 
    58dc:	01 00 00 00 	nop 
    58e0:	01 00 00 00 	nop 
    58e4:	01 00 00 00 	nop 
    58e8:	01 00 00 00 	nop 
    58ec:	01 00 00 00 	nop 
    58f0:	01 00 00 00 	nop 
    58f4:	01 00 00 00 	nop 
    58f8:	01 00 00 00 	nop 
    58fc:	01 00 00 00 	nop 
    5900:	01 00 00 00 	nop 
    5904:	01 00 00 00 	nop 
    5908:	01 00 00 00 	nop 
    590c:	01 00 00 00 	nop 
    5910:	01 00 00 00 	nop 
    5914:	01 00 00 00 	nop 
    5918:	01 00 00 00 	nop 
    591c:	01 00 00 00 	nop 
    5920:	01 00 00 00 	nop 
    5924:	01 00 00 00 	nop 
    5928:	01 00 00 00 	nop 
    592c:	01 00 00 00 	nop 
    5930:	01 00 00 00 	nop 
    5934:	01 00 00 00 	nop 
    5938:	01 00 00 00 	nop 
    593c:	01 00 00 00 	nop 
    5940:	01 00 00 00 	nop 
    5944:	01 00 00 00 	nop 
    5948:	01 00 00 00 	nop 
    594c:	01 00 00 00 	nop 
    5950:	01 00 00 00 	nop 
    5954:	01 00 00 00 	nop 
    5958:	01 00 00 00 	nop 
    595c:	01 00 00 00 	nop 
    5960:	01 00 00 00 	nop 
    5964:	01 00 00 00 	nop 
    5968:	01 00 00 00 	nop 
    596c:	01 00 00 00 	nop 
    5970:	01 00 00 00 	nop 
    5974:	01 00 00 00 	nop 
    5978:	01 00 00 00 	nop 
    597c:	01 00 00 00 	nop 
    5980:	01 00 00 00 	nop 
    5984:	01 00 00 00 	nop 
    5988:	01 00 00 00 	nop 
    598c:	01 00 00 00 	nop 
    5990:	01 00 00 00 	nop 
    5994:	01 00 00 00 	nop 
    5998:	01 00 00 00 	nop 
    599c:	01 00 00 00 	nop 
    59a0:	01 00 00 00 	nop 
    59a4:	01 00 00 00 	nop 
    59a8:	01 00 00 00 	nop 
    59ac:	01 00 00 00 	nop 
    59b0:	01 00 00 00 	nop 
    59b4:	01 00 00 00 	nop 
    59b8:	01 00 00 00 	nop 
    59bc:	01 00 00 00 	nop 
    59c0:	01 00 00 00 	nop 
    59c4:	01 00 00 00 	nop 
    59c8:	01 00 00 00 	nop 
    59cc:	01 00 00 00 	nop 
    59d0:	01 00 00 00 	nop 
    59d4:	01 00 00 00 	nop 
    59d8:	01 00 00 00 	nop 
    59dc:	01 00 00 00 	nop 
    59e0:	01 00 00 00 	nop 
    59e4:	01 00 00 00 	nop 
    59e8:	01 00 00 00 	nop 
    59ec:	01 00 00 00 	nop 
    59f0:	01 00 00 00 	nop 
    59f4:	01 00 00 00 	nop 
    59f8:	01 00 00 00 	nop 
    59fc:	01 00 00 00 	nop 
    5a00:	01 00 00 00 	nop 
    5a04:	01 00 00 00 	nop 
    5a08:	01 00 00 00 	nop 
    5a0c:	01 00 00 00 	nop 
    5a10:	01 00 00 00 	nop 
    5a14:	01 00 00 00 	nop 
    5a18:	01 00 00 00 	nop 
    5a1c:	01 00 00 00 	nop 
    5a20:	01 00 00 00 	nop 
    5a24:	01 00 00 00 	nop 
    5a28:	01 00 00 00 	nop 
    5a2c:	01 00 00 00 	nop 
    5a30:	01 00 00 00 	nop 
    5a34:	01 00 00 00 	nop 
    5a38:	01 00 00 00 	nop 
    5a3c:	01 00 00 00 	nop 
    5a40:	01 00 00 00 	nop 
    5a44:	01 00 00 00 	nop 
    5a48:	01 00 00 00 	nop 
    5a4c:	01 00 00 00 	nop 
    5a50:	01 00 00 00 	nop 
    5a54:	01 00 00 00 	nop 
    5a58:	01 00 00 00 	nop 
    5a5c:	01 00 00 00 	nop 
    5a60:	01 00 00 00 	nop 
    5a64:	01 00 00 00 	nop 
    5a68:	01 00 00 00 	nop 
    5a6c:	01 00 00 00 	nop 
    5a70:	01 00 00 00 	nop 
    5a74:	01 00 00 00 	nop 
    5a78:	01 00 00 00 	nop 
    5a7c:	01 00 00 00 	nop 
    5a80:	01 00 00 00 	nop 
    5a84:	01 00 00 00 	nop 
    5a88:	01 00 00 00 	nop 
    5a8c:	01 00 00 00 	nop 
    5a90:	01 00 00 00 	nop 
    5a94:	01 00 00 00 	nop 
    5a98:	01 00 00 00 	nop 
    5a9c:	01 00 00 00 	nop 
    5aa0:	01 00 00 00 	nop 
    5aa4:	01 00 00 00 	nop 
    5aa8:	01 00 00 00 	nop 
    5aac:	01 00 00 00 	nop 
    5ab0:	01 00 00 00 	nop 
    5ab4:	01 00 00 00 	nop 
    5ab8:	01 00 00 00 	nop 
    5abc:	01 00 00 00 	nop 
    5ac0:	01 00 00 00 	nop 
    5ac4:	01 00 00 00 	nop 
    5ac8:	01 00 00 00 	nop 
    5acc:	01 00 00 00 	nop 
    5ad0:	01 00 00 00 	nop 
    5ad4:	01 00 00 00 	nop 
    5ad8:	01 00 00 00 	nop 
    5adc:	01 00 00 00 	nop 
    5ae0:	01 00 00 00 	nop 
    5ae4:	01 00 00 00 	nop 
    5ae8:	01 00 00 00 	nop 
    5aec:	01 00 00 00 	nop 
    5af0:	01 00 00 00 	nop 
    5af4:	01 00 00 00 	nop 
    5af8:	01 00 00 00 	nop 
    5afc:	01 00 00 00 	nop 
    5b00:	01 00 00 00 	nop 
    5b04:	01 00 00 00 	nop 
    5b08:	01 00 00 00 	nop 
    5b0c:	01 00 00 00 	nop 
    5b10:	01 00 00 00 	nop 
    5b14:	01 00 00 00 	nop 
    5b18:	01 00 00 00 	nop 
    5b1c:	01 00 00 00 	nop 
    5b20:	01 00 00 00 	nop 
    5b24:	01 00 00 00 	nop 
    5b28:	01 00 00 00 	nop 
    5b2c:	01 00 00 00 	nop 
    5b30:	01 00 00 00 	nop 
    5b34:	01 00 00 00 	nop 
    5b38:	01 00 00 00 	nop 
    5b3c:	01 00 00 00 	nop 
    5b40:	01 00 00 00 	nop 
    5b44:	01 00 00 00 	nop 
    5b48:	01 00 00 00 	nop 
    5b4c:	01 00 00 00 	nop 
    5b50:	01 00 00 00 	nop 
    5b54:	01 00 00 00 	nop 
    5b58:	01 00 00 00 	nop 
    5b5c:	01 00 00 00 	nop 
    5b60:	01 00 00 00 	nop 
    5b64:	01 00 00 00 	nop 
    5b68:	01 00 00 00 	nop 
    5b6c:	01 00 00 00 	nop 
    5b70:	01 00 00 00 	nop 
    5b74:	01 00 00 00 	nop 
    5b78:	01 00 00 00 	nop 
    5b7c:	01 00 00 00 	nop 
    5b80:	01 00 00 00 	nop 
    5b84:	01 00 00 00 	nop 
    5b88:	01 00 00 00 	nop 
    5b8c:	01 00 00 00 	nop 
    5b90:	01 00 00 00 	nop 
    5b94:	01 00 00 00 	nop 
    5b98:	01 00 00 00 	nop 
    5b9c:	01 00 00 00 	nop 
    5ba0:	01 00 00 00 	nop 
    5ba4:	01 00 00 00 	nop 
    5ba8:	01 00 00 00 	nop 
    5bac:	01 00 00 00 	nop 
    5bb0:	01 00 00 00 	nop 
    5bb4:	01 00 00 00 	nop 
    5bb8:	01 00 00 00 	nop 
    5bbc:	01 00 00 00 	nop 
    5bc0:	01 00 00 00 	nop 
    5bc4:	01 00 00 00 	nop 
    5bc8:	01 00 00 00 	nop 
    5bcc:	01 00 00 00 	nop 
    5bd0:	01 00 00 00 	nop 
    5bd4:	01 00 00 00 	nop 
    5bd8:	01 00 00 00 	nop 
    5bdc:	01 00 00 00 	nop 
    5be0:	01 00 00 00 	nop 
    5be4:	01 00 00 00 	nop 
    5be8:	01 00 00 00 	nop 
    5bec:	01 00 00 00 	nop 
    5bf0:	01 00 00 00 	nop 
    5bf4:	01 00 00 00 	nop 
    5bf8:	01 00 00 00 	nop 
    5bfc:	01 00 00 00 	nop 
    5c00:	01 00 00 00 	nop 
    5c04:	01 00 00 00 	nop 
    5c08:	01 00 00 00 	nop 
    5c0c:	01 00 00 00 	nop 
    5c10:	01 00 00 00 	nop 
    5c14:	01 00 00 00 	nop 
    5c18:	01 00 00 00 	nop 
    5c1c:	01 00 00 00 	nop 
    5c20:	01 00 00 00 	nop 
    5c24:	01 00 00 00 	nop 
    5c28:	01 00 00 00 	nop 
    5c2c:	01 00 00 00 	nop 
    5c30:	01 00 00 00 	nop 
    5c34:	01 00 00 00 	nop 
    5c38:	01 00 00 00 	nop 
    5c3c:	01 00 00 00 	nop 
    5c40:	01 00 00 00 	nop 
    5c44:	01 00 00 00 	nop 
    5c48:	01 00 00 00 	nop 
    5c4c:	01 00 00 00 	nop 
    5c50:	01 00 00 00 	nop 
    5c54:	01 00 00 00 	nop 
    5c58:	01 00 00 00 	nop 
    5c5c:	01 00 00 00 	nop 
    5c60:	01 00 00 00 	nop 
    5c64:	01 00 00 00 	nop 
    5c68:	01 00 00 00 	nop 
    5c6c:	01 00 00 00 	nop 
    5c70:	01 00 00 00 	nop 
    5c74:	01 00 00 00 	nop 
    5c78:	01 00 00 00 	nop 
    5c7c:	01 00 00 00 	nop 
    5c80:	01 00 00 00 	nop 
    5c84:	01 00 00 00 	nop 
    5c88:	01 00 00 00 	nop 
    5c8c:	01 00 00 00 	nop 
    5c90:	01 00 00 00 	nop 
    5c94:	01 00 00 00 	nop 
    5c98:	01 00 00 00 	nop 
    5c9c:	01 00 00 00 	nop 
    5ca0:	01 00 00 00 	nop 
    5ca4:	01 00 00 00 	nop 
    5ca8:	01 00 00 00 	nop 
    5cac:	01 00 00 00 	nop 
    5cb0:	01 00 00 00 	nop 
    5cb4:	01 00 00 00 	nop 
    5cb8:	01 00 00 00 	nop 
    5cbc:	01 00 00 00 	nop 
    5cc0:	01 00 00 00 	nop 
    5cc4:	01 00 00 00 	nop 
    5cc8:	01 00 00 00 	nop 
    5ccc:	01 00 00 00 	nop 
    5cd0:	01 00 00 00 	nop 
    5cd4:	01 00 00 00 	nop 
    5cd8:	01 00 00 00 	nop 
    5cdc:	01 00 00 00 	nop 
    5ce0:	01 00 00 00 	nop 
    5ce4:	01 00 00 00 	nop 
    5ce8:	01 00 00 00 	nop 
    5cec:	01 00 00 00 	nop 
    5cf0:	01 00 00 00 	nop 
    5cf4:	01 00 00 00 	nop 
    5cf8:	01 00 00 00 	nop 
    5cfc:	01 00 00 00 	nop 
    5d00:	01 00 00 00 	nop 
    5d04:	01 00 00 00 	nop 
    5d08:	01 00 00 00 	nop 
    5d0c:	01 00 00 00 	nop 
    5d10:	01 00 00 00 	nop 
    5d14:	01 00 00 00 	nop 
    5d18:	01 00 00 00 	nop 
    5d1c:	01 00 00 00 	nop 
    5d20:	01 00 00 00 	nop 
    5d24:	01 00 00 00 	nop 
    5d28:	01 00 00 00 	nop 
    5d2c:	01 00 00 00 	nop 
    5d30:	01 00 00 00 	nop 
    5d34:	01 00 00 00 	nop 
    5d38:	01 00 00 00 	nop 
    5d3c:	01 00 00 00 	nop 
    5d40:	01 00 00 00 	nop 
    5d44:	01 00 00 00 	nop 
    5d48:	01 00 00 00 	nop 
    5d4c:	01 00 00 00 	nop 
    5d50:	01 00 00 00 	nop 
    5d54:	01 00 00 00 	nop 
    5d58:	01 00 00 00 	nop 
    5d5c:	01 00 00 00 	nop 
    5d60:	01 00 00 00 	nop 
    5d64:	01 00 00 00 	nop 
    5d68:	01 00 00 00 	nop 
    5d6c:	01 00 00 00 	nop 
    5d70:	01 00 00 00 	nop 
    5d74:	01 00 00 00 	nop 
    5d78:	01 00 00 00 	nop 
    5d7c:	01 00 00 00 	nop 
    5d80:	01 00 00 00 	nop 
    5d84:	01 00 00 00 	nop 
    5d88:	01 00 00 00 	nop 
    5d8c:	01 00 00 00 	nop 
    5d90:	01 00 00 00 	nop 
    5d94:	01 00 00 00 	nop 
    5d98:	01 00 00 00 	nop 
    5d9c:	01 00 00 00 	nop 
    5da0:	01 00 00 00 	nop 
    5da4:	01 00 00 00 	nop 
    5da8:	01 00 00 00 	nop 
    5dac:	01 00 00 00 	nop 
    5db0:	01 00 00 00 	nop 
    5db4:	01 00 00 00 	nop 
    5db8:	01 00 00 00 	nop 
    5dbc:	01 00 00 00 	nop 
    5dc0:	01 00 00 00 	nop 
    5dc4:	01 00 00 00 	nop 
    5dc8:	01 00 00 00 	nop 
    5dcc:	01 00 00 00 	nop 
    5dd0:	01 00 00 00 	nop 
    5dd4:	01 00 00 00 	nop 
    5dd8:	01 00 00 00 	nop 
    5ddc:	01 00 00 00 	nop 
    5de0:	01 00 00 00 	nop 
    5de4:	01 00 00 00 	nop 
    5de8:	01 00 00 00 	nop 
    5dec:	01 00 00 00 	nop 
    5df0:	01 00 00 00 	nop 
    5df4:	01 00 00 00 	nop 
    5df8:	01 00 00 00 	nop 
    5dfc:	01 00 00 00 	nop 
    5e00:	01 00 00 00 	nop 
    5e04:	01 00 00 00 	nop 
    5e08:	01 00 00 00 	nop 
    5e0c:	01 00 00 00 	nop 
    5e10:	01 00 00 00 	nop 
    5e14:	01 00 00 00 	nop 
    5e18:	01 00 00 00 	nop 
    5e1c:	01 00 00 00 	nop 
    5e20:	01 00 00 00 	nop 
    5e24:	01 00 00 00 	nop 
    5e28:	01 00 00 00 	nop 
    5e2c:	01 00 00 00 	nop 
    5e30:	01 00 00 00 	nop 
    5e34:	01 00 00 00 	nop 
    5e38:	01 00 00 00 	nop 
    5e3c:	01 00 00 00 	nop 
    5e40:	01 00 00 00 	nop 
    5e44:	01 00 00 00 	nop 
    5e48:	01 00 00 00 	nop 
    5e4c:	01 00 00 00 	nop 
    5e50:	01 00 00 00 	nop 
    5e54:	01 00 00 00 	nop 
    5e58:	01 00 00 00 	nop 
    5e5c:	01 00 00 00 	nop 
    5e60:	01 00 00 00 	nop 
    5e64:	01 00 00 00 	nop 
    5e68:	01 00 00 00 	nop 
    5e6c:	01 00 00 00 	nop 
    5e70:	01 00 00 00 	nop 
    5e74:	01 00 00 00 	nop 
    5e78:	01 00 00 00 	nop 
    5e7c:	01 00 00 00 	nop 
    5e80:	01 00 00 00 	nop 
    5e84:	01 00 00 00 	nop 
    5e88:	01 00 00 00 	nop 
    5e8c:	01 00 00 00 	nop 
    5e90:	01 00 00 00 	nop 
    5e94:	01 00 00 00 	nop 
    5e98:	01 00 00 00 	nop 
    5e9c:	01 00 00 00 	nop 
    5ea0:	01 00 00 00 	nop 
    5ea4:	01 00 00 00 	nop 
    5ea8:	01 00 00 00 	nop 
    5eac:	01 00 00 00 	nop 
    5eb0:	01 00 00 00 	nop 
    5eb4:	01 00 00 00 	nop 
    5eb8:	01 00 00 00 	nop 
    5ebc:	01 00 00 00 	nop 
    5ec0:	01 00 00 00 	nop 
    5ec4:	01 00 00 00 	nop 
    5ec8:	01 00 00 00 	nop 
    5ecc:	01 00 00 00 	nop 
    5ed0:	01 00 00 00 	nop 
    5ed4:	01 00 00 00 	nop 
    5ed8:	01 00 00 00 	nop 
    5edc:	01 00 00 00 	nop 
    5ee0:	01 00 00 00 	nop 
    5ee4:	01 00 00 00 	nop 
    5ee8:	01 00 00 00 	nop 
    5eec:	01 00 00 00 	nop 
    5ef0:	01 00 00 00 	nop 
    5ef4:	01 00 00 00 	nop 
    5ef8:	01 00 00 00 	nop 
    5efc:	01 00 00 00 	nop 
    5f00:	01 00 00 00 	nop 
    5f04:	01 00 00 00 	nop 
    5f08:	01 00 00 00 	nop 
    5f0c:	01 00 00 00 	nop 
    5f10:	01 00 00 00 	nop 
    5f14:	01 00 00 00 	nop 
    5f18:	01 00 00 00 	nop 
    5f1c:	01 00 00 00 	nop 
    5f20:	01 00 00 00 	nop 
    5f24:	01 00 00 00 	nop 
    5f28:	01 00 00 00 	nop 
    5f2c:	01 00 00 00 	nop 
    5f30:	01 00 00 00 	nop 
    5f34:	01 00 00 00 	nop 
    5f38:	01 00 00 00 	nop 
    5f3c:	01 00 00 00 	nop 
    5f40:	01 00 00 00 	nop 
    5f44:	01 00 00 00 	nop 
    5f48:	01 00 00 00 	nop 
    5f4c:	01 00 00 00 	nop 
    5f50:	01 00 00 00 	nop 
    5f54:	01 00 00 00 	nop 
    5f58:	01 00 00 00 	nop 
    5f5c:	01 00 00 00 	nop 
    5f60:	01 00 00 00 	nop 
    5f64:	01 00 00 00 	nop 
    5f68:	01 00 00 00 	nop 
    5f6c:	01 00 00 00 	nop 
    5f70:	01 00 00 00 	nop 
    5f74:	01 00 00 00 	nop 
    5f78:	01 00 00 00 	nop 
    5f7c:	01 00 00 00 	nop 
    5f80:	01 00 00 00 	nop 
    5f84:	01 00 00 00 	nop 
    5f88:	01 00 00 00 	nop 
    5f8c:	01 00 00 00 	nop 
    5f90:	01 00 00 00 	nop 
    5f94:	01 00 00 00 	nop 
    5f98:	01 00 00 00 	nop 
    5f9c:	01 00 00 00 	nop 
    5fa0:	01 00 00 00 	nop 
    5fa4:	01 00 00 00 	nop 
    5fa8:	01 00 00 00 	nop 
    5fac:	01 00 00 00 	nop 
    5fb0:	01 00 00 00 	nop 
    5fb4:	01 00 00 00 	nop 
    5fb8:	01 00 00 00 	nop 
    5fbc:	01 00 00 00 	nop 
    5fc0:	01 00 00 00 	nop 
    5fc4:	01 00 00 00 	nop 
    5fc8:	01 00 00 00 	nop 
    5fcc:	01 00 00 00 	nop 
    5fd0:	01 00 00 00 	nop 
    5fd4:	01 00 00 00 	nop 
    5fd8:	01 00 00 00 	nop 
    5fdc:	01 00 00 00 	nop 
    5fe0:	01 00 00 00 	nop 
    5fe4:	01 00 00 00 	nop 
    5fe8:	01 00 00 00 	nop 
    5fec:	01 00 00 00 	nop 
    5ff0:	01 00 00 00 	nop 
    5ff4:	01 00 00 00 	nop 
    5ff8:	01 00 00 00 	nop 
    5ffc:	01 00 00 00 	nop 

00006000 <trap_table_base>:
    6000:	91 d0 20 00 	ta  0
    6004:	01 00 00 00 	nop 
    6008:	01 00 00 00 	nop 
    600c:	01 00 00 00 	nop 

00006010 <HW_trap_0x01>:
    6010:	91 d0 20 00 	ta  0
    6014:	01 00 00 00 	nop 
    6018:	01 00 00 00 	nop 
    601c:	01 00 00 00 	nop 

00006020 <HW_trap_0x02>:
    6020:	91 d0 20 00 	ta  0
    6024:	01 00 00 00 	nop 
    6028:	01 00 00 00 	nop 
    602c:	01 00 00 00 	nop 

00006030 <HW_trap_0x03>:
    6030:	91 d0 20 00 	ta  0
    6034:	01 00 00 00 	nop 
    6038:	01 00 00 00 	nop 
    603c:	01 00 00 00 	nop 

00006040 <HW_trap_0x04>:
    6040:	91 d0 20 00 	ta  0
    6044:	01 00 00 00 	nop 
    6048:	01 00 00 00 	nop 
    604c:	01 00 00 00 	nop 

00006050 <HW_trap_0x05>:
    6050:	10 bf fb ec 	b  5000 <window_overflow_trap_handler>
    6054:	01 00 00 00 	nop 
    6058:	01 00 00 00 	nop 
    605c:	01 00 00 00 	nop 

00006060 <HW_trap_0x06>:
    6060:	10 bf fc 01 	b  5064 <window_underflow_trap_handler>
    6064:	01 00 00 00 	nop 
    6068:	01 00 00 00 	nop 
    606c:	01 00 00 00 	nop 

00006070 <HW_trap_0x07>:
    6070:	91 d0 20 00 	ta  0
    6074:	01 00 00 00 	nop 
    6078:	01 00 00 00 	nop 
    607c:	01 00 00 00 	nop 

00006080 <HW_trap_0x08>:
    6080:	91 d0 20 00 	ta  0
    6084:	01 00 00 00 	nop 
    6088:	01 00 00 00 	nop 
    608c:	01 00 00 00 	nop 

00006090 <HW_trap_0x09>:
    6090:	91 d0 20 00 	ta  0
    6094:	01 00 00 00 	nop 
    6098:	01 00 00 00 	nop 
    609c:	01 00 00 00 	nop 

000060a0 <HW_trap_0x0a>:
    60a0:	91 d0 20 00 	ta  0
    60a4:	01 00 00 00 	nop 
    60a8:	01 00 00 00 	nop 
    60ac:	01 00 00 00 	nop 

000060b0 <HW_trap_0x0b>:
    60b0:	91 d0 20 00 	ta  0
    60b4:	01 00 00 00 	nop 
    60b8:	01 00 00 00 	nop 
    60bc:	01 00 00 00 	nop 

000060c0 <HW_trap_0x0c>:
    60c0:	91 d0 20 00 	ta  0
    60c4:	01 00 00 00 	nop 
    60c8:	01 00 00 00 	nop 
    60cc:	01 00 00 00 	nop 

000060d0 <HW_trap_0x0d>:
    60d0:	91 d0 20 00 	ta  0
    60d4:	01 00 00 00 	nop 
    60d8:	01 00 00 00 	nop 
    60dc:	01 00 00 00 	nop 

000060e0 <HW_trap_0x0e>:
    60e0:	91 d0 20 00 	ta  0
    60e4:	01 00 00 00 	nop 
    60e8:	01 00 00 00 	nop 
    60ec:	01 00 00 00 	nop 

000060f0 <HW_trap_0x0f>:
    60f0:	91 d0 20 00 	ta  0
    60f4:	01 00 00 00 	nop 
    60f8:	01 00 00 00 	nop 
    60fc:	01 00 00 00 	nop 

00006100 <HW_trap_0x10>:
    6100:	91 d0 20 00 	ta  0
    6104:	01 00 00 00 	nop 
    6108:	01 00 00 00 	nop 
    610c:	01 00 00 00 	nop 

00006110 <HW_trap_0x11>:
    6110:	91 d0 20 00 	ta  0
    6114:	01 00 00 00 	nop 
    6118:	01 00 00 00 	nop 
    611c:	01 00 00 00 	nop 

00006120 <HW_trap_0x12>:
    6120:	91 d0 20 00 	ta  0
    6124:	01 00 00 00 	nop 
    6128:	01 00 00 00 	nop 
    612c:	01 00 00 00 	nop 

00006130 <HW_trap_0x13>:
    6130:	91 d0 20 00 	ta  0
    6134:	01 00 00 00 	nop 
    6138:	01 00 00 00 	nop 
    613c:	01 00 00 00 	nop 

00006140 <HW_trap_0x14>:
    6140:	91 d0 20 00 	ta  0
    6144:	01 00 00 00 	nop 
    6148:	01 00 00 00 	nop 
    614c:	01 00 00 00 	nop 

00006150 <HW_trap_0x15>:
    6150:	91 d0 20 00 	ta  0
    6154:	01 00 00 00 	nop 
    6158:	01 00 00 00 	nop 
    615c:	01 00 00 00 	nop 

00006160 <HW_trap_0x16>:
    6160:	91 d0 20 00 	ta  0
    6164:	01 00 00 00 	nop 
    6168:	01 00 00 00 	nop 
    616c:	01 00 00 00 	nop 

00006170 <HW_trap_0x17>:
    6170:	91 d0 20 00 	ta  0
    6174:	01 00 00 00 	nop 
    6178:	01 00 00 00 	nop 
    617c:	01 00 00 00 	nop 

00006180 <HW_trap_0x18>:
    6180:	91 d0 20 00 	ta  0
    6184:	01 00 00 00 	nop 
    6188:	01 00 00 00 	nop 
    618c:	01 00 00 00 	nop 

00006190 <HW_trap_0x19>:
    6190:	91 d0 20 00 	ta  0
    6194:	01 00 00 00 	nop 
    6198:	01 00 00 00 	nop 
    619c:	01 00 00 00 	nop 

000061a0 <HW_trap_0x1a>:
    61a0:	91 d0 20 00 	ta  0
    61a4:	01 00 00 00 	nop 
    61a8:	01 00 00 00 	nop 
    61ac:	01 00 00 00 	nop 

000061b0 <HW_trap_0x1b>:
    61b0:	91 d0 20 00 	ta  0
    61b4:	01 00 00 00 	nop 
    61b8:	01 00 00 00 	nop 
    61bc:	01 00 00 00 	nop 

000061c0 <HW_trap_0x1c>:
    61c0:	91 d0 20 00 	ta  0
    61c4:	01 00 00 00 	nop 
    61c8:	01 00 00 00 	nop 
    61cc:	01 00 00 00 	nop 

000061d0 <HW_trap_0x1d>:
    61d0:	91 d0 20 00 	ta  0
    61d4:	01 00 00 00 	nop 
    61d8:	01 00 00 00 	nop 
    61dc:	01 00 00 00 	nop 

000061e0 <HW_trap_0x1e>:
    61e0:	91 d0 20 00 	ta  0
    61e4:	01 00 00 00 	nop 
    61e8:	01 00 00 00 	nop 
    61ec:	01 00 00 00 	nop 

000061f0 <HW_trap_0x1f>:
    61f0:	91 d0 20 00 	ta  0
    61f4:	01 00 00 00 	nop 
    61f8:	01 00 00 00 	nop 
    61fc:	01 00 00 00 	nop 

00006200 <HW_trap_0x20>:
    6200:	91 d0 20 00 	ta  0
    6204:	01 00 00 00 	nop 
    6208:	01 00 00 00 	nop 
    620c:	01 00 00 00 	nop 

00006210 <HW_trap_0x21>:
    6210:	91 d0 20 00 	ta  0
    6214:	01 00 00 00 	nop 
    6218:	01 00 00 00 	nop 
    621c:	01 00 00 00 	nop 

00006220 <HW_trap_0x22>:
    6220:	91 d0 20 00 	ta  0
    6224:	01 00 00 00 	nop 
    6228:	01 00 00 00 	nop 
    622c:	01 00 00 00 	nop 

00006230 <HW_trap_0x23>:
    6230:	91 d0 20 00 	ta  0
    6234:	01 00 00 00 	nop 
    6238:	01 00 00 00 	nop 
    623c:	01 00 00 00 	nop 

00006240 <HW_trap_0x24>:
    6240:	91 d0 20 00 	ta  0
    6244:	01 00 00 00 	nop 
    6248:	01 00 00 00 	nop 
    624c:	01 00 00 00 	nop 

00006250 <HW_trap_0x25>:
    6250:	91 d0 20 00 	ta  0
    6254:	01 00 00 00 	nop 
    6258:	01 00 00 00 	nop 
    625c:	01 00 00 00 	nop 

00006260 <HW_trap_0x26>:
    6260:	91 d0 20 00 	ta  0
    6264:	01 00 00 00 	nop 
    6268:	01 00 00 00 	nop 
    626c:	01 00 00 00 	nop 

00006270 <HW_trap_0x27>:
    6270:	91 d0 20 00 	ta  0
    6274:	01 00 00 00 	nop 
    6278:	01 00 00 00 	nop 
    627c:	01 00 00 00 	nop 

00006280 <HW_trap_0x28>:
    6280:	91 d0 20 00 	ta  0
    6284:	01 00 00 00 	nop 
    6288:	01 00 00 00 	nop 
    628c:	01 00 00 00 	nop 

00006290 <HW_trap_0x29>:
    6290:	91 d0 20 00 	ta  0
    6294:	01 00 00 00 	nop 
    6298:	01 00 00 00 	nop 
    629c:	01 00 00 00 	nop 

000062a0 <HW_trap_0x2a>:
    62a0:	91 d0 20 00 	ta  0
    62a4:	01 00 00 00 	nop 
    62a8:	01 00 00 00 	nop 
    62ac:	01 00 00 00 	nop 

000062b0 <HW_trap_0x2b>:
    62b0:	91 d0 20 00 	ta  0
    62b4:	01 00 00 00 	nop 
    62b8:	01 00 00 00 	nop 
    62bc:	01 00 00 00 	nop 

000062c0 <HW_trap_0x2c>:
    62c0:	91 d0 20 00 	ta  0
    62c4:	01 00 00 00 	nop 
    62c8:	01 00 00 00 	nop 
    62cc:	01 00 00 00 	nop 

000062d0 <HW_trap_0x2d>:
    62d0:	91 d0 20 00 	ta  0
    62d4:	01 00 00 00 	nop 
    62d8:	01 00 00 00 	nop 
    62dc:	01 00 00 00 	nop 

000062e0 <HW_trap_0x2e>:
    62e0:	91 d0 20 00 	ta  0
    62e4:	01 00 00 00 	nop 
    62e8:	01 00 00 00 	nop 
    62ec:	01 00 00 00 	nop 

000062f0 <HW_trap_0x2f>:
    62f0:	91 d0 20 00 	ta  0
    62f4:	01 00 00 00 	nop 
    62f8:	01 00 00 00 	nop 
    62fc:	01 00 00 00 	nop 

00006300 <HW_trap_0x30>:
    6300:	91 d0 20 00 	ta  0
    6304:	01 00 00 00 	nop 
    6308:	01 00 00 00 	nop 
    630c:	01 00 00 00 	nop 

00006310 <HW_trap_0x31>:
    6310:	91 d0 20 00 	ta  0
    6314:	01 00 00 00 	nop 
    6318:	01 00 00 00 	nop 
    631c:	01 00 00 00 	nop 

00006320 <HW_trap_0x32>:
    6320:	91 d0 20 00 	ta  0
    6324:	01 00 00 00 	nop 
    6328:	01 00 00 00 	nop 
    632c:	01 00 00 00 	nop 

00006330 <HW_trap_0x33>:
    6330:	91 d0 20 00 	ta  0
    6334:	01 00 00 00 	nop 
    6338:	01 00 00 00 	nop 
    633c:	01 00 00 00 	nop 

00006340 <HW_trap_0x34>:
    6340:	91 d0 20 00 	ta  0
    6344:	01 00 00 00 	nop 
    6348:	01 00 00 00 	nop 
    634c:	01 00 00 00 	nop 

00006350 <HW_trap_0x35>:
    6350:	91 d0 20 00 	ta  0
    6354:	01 00 00 00 	nop 
    6358:	01 00 00 00 	nop 
    635c:	01 00 00 00 	nop 

00006360 <HW_trap_0x36>:
    6360:	91 d0 20 00 	ta  0
    6364:	01 00 00 00 	nop 
    6368:	01 00 00 00 	nop 
    636c:	01 00 00 00 	nop 

00006370 <HW_trap_0x37>:
    6370:	91 d0 20 00 	ta  0
    6374:	01 00 00 00 	nop 
    6378:	01 00 00 00 	nop 
    637c:	01 00 00 00 	nop 

00006380 <HW_trap_0x38>:
    6380:	91 d0 20 00 	ta  0
    6384:	01 00 00 00 	nop 
    6388:	01 00 00 00 	nop 
    638c:	01 00 00 00 	nop 

00006390 <HW_trap_0x39>:
    6390:	91 d0 20 00 	ta  0
    6394:	01 00 00 00 	nop 
    6398:	01 00 00 00 	nop 
    639c:	01 00 00 00 	nop 

000063a0 <HW_trap_0x3a>:
    63a0:	91 d0 20 00 	ta  0
    63a4:	01 00 00 00 	nop 
    63a8:	01 00 00 00 	nop 
    63ac:	01 00 00 00 	nop 

000063b0 <HW_trap_0x3b>:
    63b0:	91 d0 20 00 	ta  0
    63b4:	01 00 00 00 	nop 
    63b8:	01 00 00 00 	nop 
    63bc:	01 00 00 00 	nop 

000063c0 <HW_trap_0x3c>:
    63c0:	91 d0 20 00 	ta  0
    63c4:	01 00 00 00 	nop 
    63c8:	01 00 00 00 	nop 
    63cc:	01 00 00 00 	nop 

000063d0 <HW_trap_0x3d>:
    63d0:	91 d0 20 00 	ta  0
    63d4:	01 00 00 00 	nop 
    63d8:	01 00 00 00 	nop 
    63dc:	01 00 00 00 	nop 

000063e0 <HW_trap_0x3e>:
    63e0:	91 d0 20 00 	ta  0
    63e4:	01 00 00 00 	nop 
    63e8:	01 00 00 00 	nop 
    63ec:	01 00 00 00 	nop 

000063f0 <HW_trap_0x3f>:
    63f0:	91 d0 20 00 	ta  0
    63f4:	01 00 00 00 	nop 
    63f8:	01 00 00 00 	nop 
    63fc:	01 00 00 00 	nop 

00006400 <HW_trap_0x40>:
    6400:	91 d0 20 00 	ta  0
    6404:	01 00 00 00 	nop 
    6408:	01 00 00 00 	nop 
    640c:	01 00 00 00 	nop 

00006410 <HW_trap_0x41>:
    6410:	91 d0 20 00 	ta  0
    6414:	01 00 00 00 	nop 
    6418:	01 00 00 00 	nop 
    641c:	01 00 00 00 	nop 

00006420 <HW_trap_0x42>:
    6420:	91 d0 20 00 	ta  0
    6424:	01 00 00 00 	nop 
    6428:	01 00 00 00 	nop 
    642c:	01 00 00 00 	nop 

00006430 <HW_trap_0x43>:
    6430:	91 d0 20 00 	ta  0
    6434:	01 00 00 00 	nop 
    6438:	01 00 00 00 	nop 
    643c:	01 00 00 00 	nop 

00006440 <HW_trap_0x44>:
    6440:	91 d0 20 00 	ta  0
    6444:	01 00 00 00 	nop 
    6448:	01 00 00 00 	nop 
    644c:	01 00 00 00 	nop 

00006450 <HW_trap_0x45>:
    6450:	91 d0 20 00 	ta  0
    6454:	01 00 00 00 	nop 
    6458:	01 00 00 00 	nop 
    645c:	01 00 00 00 	nop 

00006460 <HW_trap_0x46>:
    6460:	91 d0 20 00 	ta  0
    6464:	01 00 00 00 	nop 
    6468:	01 00 00 00 	nop 
    646c:	01 00 00 00 	nop 

00006470 <HW_trap_0x47>:
    6470:	91 d0 20 00 	ta  0
    6474:	01 00 00 00 	nop 
    6478:	01 00 00 00 	nop 
    647c:	01 00 00 00 	nop 

00006480 <HW_trap_0x48>:
    6480:	91 d0 20 00 	ta  0
    6484:	01 00 00 00 	nop 
    6488:	01 00 00 00 	nop 
    648c:	01 00 00 00 	nop 

00006490 <HW_trap_0x49>:
    6490:	91 d0 20 00 	ta  0
    6494:	01 00 00 00 	nop 
    6498:	01 00 00 00 	nop 
    649c:	01 00 00 00 	nop 

000064a0 <HW_trap_0x4a>:
    64a0:	91 d0 20 00 	ta  0
    64a4:	01 00 00 00 	nop 
    64a8:	01 00 00 00 	nop 
    64ac:	01 00 00 00 	nop 

000064b0 <HW_trap_0x4b>:
    64b0:	91 d0 20 00 	ta  0
    64b4:	01 00 00 00 	nop 
    64b8:	01 00 00 00 	nop 
    64bc:	01 00 00 00 	nop 

000064c0 <HW_trap_0x4c>:
    64c0:	91 d0 20 00 	ta  0
    64c4:	01 00 00 00 	nop 
    64c8:	01 00 00 00 	nop 
    64cc:	01 00 00 00 	nop 

000064d0 <HW_trap_0x4d>:
    64d0:	91 d0 20 00 	ta  0
    64d4:	01 00 00 00 	nop 
    64d8:	01 00 00 00 	nop 
    64dc:	01 00 00 00 	nop 

000064e0 <HW_trap_0x4e>:
    64e0:	91 d0 20 00 	ta  0
    64e4:	01 00 00 00 	nop 
    64e8:	01 00 00 00 	nop 
    64ec:	01 00 00 00 	nop 

000064f0 <HW_trap_0x4f>:
    64f0:	91 d0 20 00 	ta  0
    64f4:	01 00 00 00 	nop 
    64f8:	01 00 00 00 	nop 
    64fc:	01 00 00 00 	nop 

00006500 <HW_trap_0x50>:
    6500:	91 d0 20 00 	ta  0
    6504:	01 00 00 00 	nop 
    6508:	01 00 00 00 	nop 
    650c:	01 00 00 00 	nop 

00006510 <HW_trap_0x51>:
    6510:	91 d0 20 00 	ta  0
    6514:	01 00 00 00 	nop 
    6518:	01 00 00 00 	nop 
    651c:	01 00 00 00 	nop 

00006520 <HW_trap_0x52>:
    6520:	91 d0 20 00 	ta  0
    6524:	01 00 00 00 	nop 
    6528:	01 00 00 00 	nop 
    652c:	01 00 00 00 	nop 

00006530 <HW_trap_0x53>:
    6530:	91 d0 20 00 	ta  0
    6534:	01 00 00 00 	nop 
    6538:	01 00 00 00 	nop 
    653c:	01 00 00 00 	nop 

00006540 <HW_trap_0x54>:
    6540:	91 d0 20 00 	ta  0
    6544:	01 00 00 00 	nop 
    6548:	01 00 00 00 	nop 
    654c:	01 00 00 00 	nop 

00006550 <HW_trap_0x55>:
    6550:	91 d0 20 00 	ta  0
    6554:	01 00 00 00 	nop 
    6558:	01 00 00 00 	nop 
    655c:	01 00 00 00 	nop 

00006560 <HW_trap_0x56>:
    6560:	91 d0 20 00 	ta  0
    6564:	01 00 00 00 	nop 
    6568:	01 00 00 00 	nop 
    656c:	01 00 00 00 	nop 

00006570 <HW_trap_0x57>:
    6570:	91 d0 20 00 	ta  0
    6574:	01 00 00 00 	nop 
    6578:	01 00 00 00 	nop 
    657c:	01 00 00 00 	nop 

00006580 <HW_trap_0x58>:
    6580:	91 d0 20 00 	ta  0
    6584:	01 00 00 00 	nop 
    6588:	01 00 00 00 	nop 
    658c:	01 00 00 00 	nop 

00006590 <HW_trap_0x59>:
    6590:	91 d0 20 00 	ta  0
    6594:	01 00 00 00 	nop 
    6598:	01 00 00 00 	nop 
    659c:	01 00 00 00 	nop 

000065a0 <HW_trap_0x5a>:
    65a0:	91 d0 20 00 	ta  0
    65a4:	01 00 00 00 	nop 
    65a8:	01 00 00 00 	nop 
    65ac:	01 00 00 00 	nop 

000065b0 <HW_trap_0x5b>:
    65b0:	91 d0 20 00 	ta  0
    65b4:	01 00 00 00 	nop 
    65b8:	01 00 00 00 	nop 
    65bc:	01 00 00 00 	nop 

000065c0 <HW_trap_0x5c>:
    65c0:	91 d0 20 00 	ta  0
    65c4:	01 00 00 00 	nop 
    65c8:	01 00 00 00 	nop 
    65cc:	01 00 00 00 	nop 

000065d0 <HW_trap_0x5d>:
    65d0:	91 d0 20 00 	ta  0
    65d4:	01 00 00 00 	nop 
    65d8:	01 00 00 00 	nop 
    65dc:	01 00 00 00 	nop 

000065e0 <HW_trap_0x5e>:
    65e0:	91 d0 20 00 	ta  0
    65e4:	01 00 00 00 	nop 
    65e8:	01 00 00 00 	nop 
    65ec:	01 00 00 00 	nop 

000065f0 <HW_trap_0x5f>:
    65f0:	91 d0 20 00 	ta  0
    65f4:	01 00 00 00 	nop 
    65f8:	01 00 00 00 	nop 
    65fc:	01 00 00 00 	nop 

00006600 <HW_trap_0x60>:
    6600:	91 d0 20 00 	ta  0
    6604:	01 00 00 00 	nop 
    6608:	01 00 00 00 	nop 
    660c:	01 00 00 00 	nop 

00006610 <HW_trap_0x61>:
    6610:	91 d0 20 00 	ta  0
    6614:	01 00 00 00 	nop 
    6618:	01 00 00 00 	nop 
    661c:	01 00 00 00 	nop 

00006620 <HW_trap_0x62>:
    6620:	91 d0 20 00 	ta  0
    6624:	01 00 00 00 	nop 
    6628:	01 00 00 00 	nop 
    662c:	01 00 00 00 	nop 

00006630 <HW_trap_0x63>:
    6630:	91 d0 20 00 	ta  0
    6634:	01 00 00 00 	nop 
    6638:	01 00 00 00 	nop 
    663c:	01 00 00 00 	nop 

00006640 <HW_trap_0x64>:
    6640:	91 d0 20 00 	ta  0
    6644:	01 00 00 00 	nop 
    6648:	01 00 00 00 	nop 
    664c:	01 00 00 00 	nop 

00006650 <HW_trap_0x65>:
    6650:	91 d0 20 00 	ta  0
    6654:	01 00 00 00 	nop 
    6658:	01 00 00 00 	nop 
    665c:	01 00 00 00 	nop 

00006660 <HW_trap_0x66>:
    6660:	91 d0 20 00 	ta  0
    6664:	01 00 00 00 	nop 
    6668:	01 00 00 00 	nop 
    666c:	01 00 00 00 	nop 

00006670 <HW_trap_0x67>:
    6670:	91 d0 20 00 	ta  0
    6674:	01 00 00 00 	nop 
    6678:	01 00 00 00 	nop 
    667c:	01 00 00 00 	nop 

00006680 <HW_trap_0x68>:
    6680:	91 d0 20 00 	ta  0
    6684:	01 00 00 00 	nop 
    6688:	01 00 00 00 	nop 
    668c:	01 00 00 00 	nop 

00006690 <HW_trap_0x69>:
    6690:	91 d0 20 00 	ta  0
    6694:	01 00 00 00 	nop 
    6698:	01 00 00 00 	nop 
    669c:	01 00 00 00 	nop 

000066a0 <HW_trap_0x6a>:
    66a0:	91 d0 20 00 	ta  0
    66a4:	01 00 00 00 	nop 
    66a8:	01 00 00 00 	nop 
    66ac:	01 00 00 00 	nop 

000066b0 <HW_trap_0x6b>:
    66b0:	91 d0 20 00 	ta  0
    66b4:	01 00 00 00 	nop 
    66b8:	01 00 00 00 	nop 
    66bc:	01 00 00 00 	nop 

000066c0 <HW_trap_0x6c>:
    66c0:	91 d0 20 00 	ta  0
    66c4:	01 00 00 00 	nop 
    66c8:	01 00 00 00 	nop 
    66cc:	01 00 00 00 	nop 

000066d0 <HW_trap_0x6d>:
    66d0:	91 d0 20 00 	ta  0
    66d4:	01 00 00 00 	nop 
    66d8:	01 00 00 00 	nop 
    66dc:	01 00 00 00 	nop 

000066e0 <HW_trap_0x6e>:
    66e0:	91 d0 20 00 	ta  0
    66e4:	01 00 00 00 	nop 
    66e8:	01 00 00 00 	nop 
    66ec:	01 00 00 00 	nop 

000066f0 <HW_trap_0x6f>:
    66f0:	91 d0 20 00 	ta  0
    66f4:	01 00 00 00 	nop 
    66f8:	01 00 00 00 	nop 
    66fc:	01 00 00 00 	nop 

00006700 <HW_trap_0x70>:
    6700:	91 d0 20 00 	ta  0
    6704:	01 00 00 00 	nop 
    6708:	01 00 00 00 	nop 
    670c:	01 00 00 00 	nop 

00006710 <HW_trap_0x71>:
    6710:	91 d0 20 00 	ta  0
    6714:	01 00 00 00 	nop 
    6718:	01 00 00 00 	nop 
    671c:	01 00 00 00 	nop 

00006720 <HW_trap_0x72>:
    6720:	91 d0 20 00 	ta  0
    6724:	01 00 00 00 	nop 
    6728:	01 00 00 00 	nop 
    672c:	01 00 00 00 	nop 

00006730 <HW_trap_0x73>:
    6730:	91 d0 20 00 	ta  0
    6734:	01 00 00 00 	nop 
    6738:	01 00 00 00 	nop 
    673c:	01 00 00 00 	nop 

00006740 <HW_trap_0x74>:
    6740:	91 d0 20 00 	ta  0
    6744:	01 00 00 00 	nop 
    6748:	01 00 00 00 	nop 
    674c:	01 00 00 00 	nop 

00006750 <HW_trap_0x75>:
    6750:	91 d0 20 00 	ta  0
    6754:	01 00 00 00 	nop 
    6758:	01 00 00 00 	nop 
    675c:	01 00 00 00 	nop 

00006760 <HW_trap_0x76>:
    6760:	91 d0 20 00 	ta  0
    6764:	01 00 00 00 	nop 
    6768:	01 00 00 00 	nop 
    676c:	01 00 00 00 	nop 

00006770 <HW_trap_0x77>:
    6770:	91 d0 20 00 	ta  0
    6774:	01 00 00 00 	nop 
    6778:	01 00 00 00 	nop 
    677c:	01 00 00 00 	nop 

00006780 <HW_trap_0x78>:
    6780:	91 d0 20 00 	ta  0
    6784:	01 00 00 00 	nop 
    6788:	01 00 00 00 	nop 
    678c:	01 00 00 00 	nop 

00006790 <HW_trap_0x79>:
    6790:	91 d0 20 00 	ta  0
    6794:	01 00 00 00 	nop 
    6798:	01 00 00 00 	nop 
    679c:	01 00 00 00 	nop 

000067a0 <HW_trap_0x7a>:
    67a0:	91 d0 20 00 	ta  0
    67a4:	01 00 00 00 	nop 
    67a8:	01 00 00 00 	nop 
    67ac:	01 00 00 00 	nop 

000067b0 <HW_trap_0x7b>:
    67b0:	91 d0 20 00 	ta  0
    67b4:	01 00 00 00 	nop 
    67b8:	01 00 00 00 	nop 
    67bc:	01 00 00 00 	nop 

000067c0 <HW_trap_0x7c>:
    67c0:	91 d0 20 00 	ta  0
    67c4:	01 00 00 00 	nop 
    67c8:	01 00 00 00 	nop 
    67cc:	01 00 00 00 	nop 

000067d0 <HW_trap_0x7d>:
    67d0:	91 d0 20 00 	ta  0
    67d4:	01 00 00 00 	nop 
    67d8:	01 00 00 00 	nop 
    67dc:	01 00 00 00 	nop 

000067e0 <HW_trap_0x7e>:
    67e0:	91 d0 20 00 	ta  0
    67e4:	01 00 00 00 	nop 
    67e8:	01 00 00 00 	nop 
    67ec:	01 00 00 00 	nop 

000067f0 <HW_trap_0x7f>:
    67f0:	91 d0 20 00 	ta  0
    67f4:	01 00 00 00 	nop 
    67f8:	01 00 00 00 	nop 
    67fc:	01 00 00 00 	nop 

00006800 <SW_trap_0x80>:
    6800:	91 d0 20 00 	ta  0
    6804:	01 00 00 00 	nop 
    6808:	01 00 00 00 	nop 
    680c:	01 00 00 00 	nop 

00006810 <SW_trap_0x81>:
    6810:	91 d0 20 00 	ta  0
    6814:	01 00 00 00 	nop 
    6818:	01 00 00 00 	nop 
    681c:	01 00 00 00 	nop 

00006820 <SW_trap_0x82>:
    6820:	91 d0 20 00 	ta  0
    6824:	01 00 00 00 	nop 
    6828:	01 00 00 00 	nop 
    682c:	01 00 00 00 	nop 

00006830 <SW_trap_0x83>:
    6830:	91 d0 20 00 	ta  0
    6834:	01 00 00 00 	nop 
    6838:	01 00 00 00 	nop 
    683c:	01 00 00 00 	nop 

00006840 <SW_trap_0x84>:
    6840:	91 d0 20 00 	ta  0
    6844:	01 00 00 00 	nop 
    6848:	01 00 00 00 	nop 
    684c:	01 00 00 00 	nop 

00006850 <SW_trap_0x85>:
    6850:	91 d0 20 00 	ta  0
    6854:	01 00 00 00 	nop 
    6858:	01 00 00 00 	nop 
    685c:	01 00 00 00 	nop 

00006860 <SW_trap_0x86>:
    6860:	91 d0 20 00 	ta  0
    6864:	01 00 00 00 	nop 
    6868:	01 00 00 00 	nop 
    686c:	01 00 00 00 	nop 

00006870 <SW_trap_0x87>:
    6870:	91 d0 20 00 	ta  0
    6874:	01 00 00 00 	nop 
    6878:	01 00 00 00 	nop 
    687c:	01 00 00 00 	nop 

00006880 <SW_trap_0x88>:
    6880:	91 d0 20 00 	ta  0
    6884:	01 00 00 00 	nop 
    6888:	01 00 00 00 	nop 
    688c:	01 00 00 00 	nop 

00006890 <SW_trap_0x89>:
    6890:	91 d0 20 00 	ta  0
    6894:	01 00 00 00 	nop 
    6898:	01 00 00 00 	nop 
    689c:	01 00 00 00 	nop 

000068a0 <SW_trap_0x8a>:
    68a0:	91 d0 20 00 	ta  0
    68a4:	01 00 00 00 	nop 
    68a8:	01 00 00 00 	nop 
    68ac:	01 00 00 00 	nop 

000068b0 <SW_trap_0x8b>:
    68b0:	91 d0 20 00 	ta  0
    68b4:	01 00 00 00 	nop 
    68b8:	01 00 00 00 	nop 
    68bc:	01 00 00 00 	nop 

000068c0 <SW_trap_0x8c>:
    68c0:	91 d0 20 00 	ta  0
    68c4:	01 00 00 00 	nop 
    68c8:	01 00 00 00 	nop 
    68cc:	01 00 00 00 	nop 

000068d0 <SW_trap_0x8d>:
    68d0:	91 d0 20 00 	ta  0
    68d4:	01 00 00 00 	nop 
    68d8:	01 00 00 00 	nop 
    68dc:	01 00 00 00 	nop 

000068e0 <SW_trap_0x8e>:
    68e0:	91 d0 20 00 	ta  0
    68e4:	01 00 00 00 	nop 
    68e8:	01 00 00 00 	nop 
    68ec:	01 00 00 00 	nop 

000068f0 <SW_trap_0x8f>:
    68f0:	91 d0 20 00 	ta  0
    68f4:	01 00 00 00 	nop 
    68f8:	01 00 00 00 	nop 
    68fc:	01 00 00 00 	nop 

00006900 <SW_trap_0x90>:
    6900:	91 d0 20 00 	ta  0
    6904:	01 00 00 00 	nop 
    6908:	01 00 00 00 	nop 
    690c:	01 00 00 00 	nop 

00006910 <SW_trap_0x91>:
    6910:	91 d0 20 00 	ta  0
    6914:	01 00 00 00 	nop 
    6918:	01 00 00 00 	nop 
    691c:	01 00 00 00 	nop 

00006920 <SW_trap_0x92>:
    6920:	91 d0 20 00 	ta  0
    6924:	01 00 00 00 	nop 
    6928:	01 00 00 00 	nop 
    692c:	01 00 00 00 	nop 

00006930 <SW_trap_0x93>:
    6930:	91 d0 20 00 	ta  0
    6934:	01 00 00 00 	nop 
    6938:	01 00 00 00 	nop 
    693c:	01 00 00 00 	nop 

00006940 <SW_trap_0x94>:
    6940:	91 d0 20 00 	ta  0
    6944:	01 00 00 00 	nop 
    6948:	01 00 00 00 	nop 
    694c:	01 00 00 00 	nop 

00006950 <SW_trap_0x95>:
    6950:	91 d0 20 00 	ta  0
    6954:	01 00 00 00 	nop 
    6958:	01 00 00 00 	nop 
    695c:	01 00 00 00 	nop 

00006960 <SW_trap_0x96>:
    6960:	91 d0 20 00 	ta  0
    6964:	01 00 00 00 	nop 
    6968:	01 00 00 00 	nop 
    696c:	01 00 00 00 	nop 

00006970 <SW_trap_0x97>:
    6970:	91 d0 20 00 	ta  0
    6974:	01 00 00 00 	nop 
    6978:	01 00 00 00 	nop 
    697c:	01 00 00 00 	nop 

00006980 <SW_trap_0x98>:
    6980:	91 d0 20 00 	ta  0
    6984:	01 00 00 00 	nop 
    6988:	01 00 00 00 	nop 
    698c:	01 00 00 00 	nop 

00006990 <SW_trap_0x99>:
    6990:	91 d0 20 00 	ta  0
    6994:	01 00 00 00 	nop 
    6998:	01 00 00 00 	nop 
    699c:	01 00 00 00 	nop 

000069a0 <SW_trap_0x9a>:
    69a0:	91 d0 20 00 	ta  0
    69a4:	01 00 00 00 	nop 
    69a8:	01 00 00 00 	nop 
    69ac:	01 00 00 00 	nop 

000069b0 <SW_trap_0x9b>:
    69b0:	91 d0 20 00 	ta  0
    69b4:	01 00 00 00 	nop 
    69b8:	01 00 00 00 	nop 
    69bc:	01 00 00 00 	nop 

000069c0 <SW_trap_0x9c>:
    69c0:	91 d0 20 00 	ta  0
    69c4:	01 00 00 00 	nop 
    69c8:	01 00 00 00 	nop 
    69cc:	01 00 00 00 	nop 

000069d0 <SW_trap_0x9d>:
    69d0:	91 d0 20 00 	ta  0
    69d4:	01 00 00 00 	nop 
    69d8:	01 00 00 00 	nop 
    69dc:	01 00 00 00 	nop 

000069e0 <SW_trap_0x9e>:
    69e0:	91 d0 20 00 	ta  0
    69e4:	01 00 00 00 	nop 
    69e8:	01 00 00 00 	nop 
    69ec:	01 00 00 00 	nop 

000069f0 <SW_trap_0x9f>:
    69f0:	91 d0 20 00 	ta  0
    69f4:	01 00 00 00 	nop 
    69f8:	01 00 00 00 	nop 
    69fc:	01 00 00 00 	nop 

00006a00 <SW_trap_0xa0>:
    6a00:	91 d0 20 00 	ta  0
    6a04:	01 00 00 00 	nop 
    6a08:	01 00 00 00 	nop 
    6a0c:	01 00 00 00 	nop 

00006a10 <SW_trap_0xa1>:
    6a10:	91 d0 20 00 	ta  0
    6a14:	01 00 00 00 	nop 
    6a18:	01 00 00 00 	nop 
    6a1c:	01 00 00 00 	nop 

00006a20 <SW_trap_0xa2>:
    6a20:	91 d0 20 00 	ta  0
    6a24:	01 00 00 00 	nop 
    6a28:	01 00 00 00 	nop 
    6a2c:	01 00 00 00 	nop 

00006a30 <SW_trap_0xa3>:
    6a30:	91 d0 20 00 	ta  0
    6a34:	01 00 00 00 	nop 
    6a38:	01 00 00 00 	nop 
    6a3c:	01 00 00 00 	nop 

00006a40 <SW_trap_0xa4>:
    6a40:	91 d0 20 00 	ta  0
    6a44:	01 00 00 00 	nop 
    6a48:	01 00 00 00 	nop 
    6a4c:	01 00 00 00 	nop 

00006a50 <SW_trap_0xa5>:
    6a50:	91 d0 20 00 	ta  0
    6a54:	01 00 00 00 	nop 
    6a58:	01 00 00 00 	nop 
    6a5c:	01 00 00 00 	nop 

00006a60 <SW_trap_0xa6>:
    6a60:	91 d0 20 00 	ta  0
    6a64:	01 00 00 00 	nop 
    6a68:	01 00 00 00 	nop 
    6a6c:	01 00 00 00 	nop 

00006a70 <SW_trap_0xa7>:
    6a70:	91 d0 20 00 	ta  0
    6a74:	01 00 00 00 	nop 
    6a78:	01 00 00 00 	nop 
    6a7c:	01 00 00 00 	nop 

00006a80 <SW_trap_0xa8>:
    6a80:	91 d0 20 00 	ta  0
    6a84:	01 00 00 00 	nop 
    6a88:	01 00 00 00 	nop 
    6a8c:	01 00 00 00 	nop 

00006a90 <SW_trap_0xa9>:
    6a90:	91 d0 20 00 	ta  0
    6a94:	01 00 00 00 	nop 
    6a98:	01 00 00 00 	nop 
    6a9c:	01 00 00 00 	nop 

00006aa0 <SW_trap_0xaa>:
    6aa0:	91 d0 20 00 	ta  0
    6aa4:	01 00 00 00 	nop 
    6aa8:	01 00 00 00 	nop 
    6aac:	01 00 00 00 	nop 

00006ab0 <SW_trap_0xab>:
    6ab0:	91 d0 20 00 	ta  0
    6ab4:	01 00 00 00 	nop 
    6ab8:	01 00 00 00 	nop 
    6abc:	01 00 00 00 	nop 

00006ac0 <SW_trap_0xac>:
    6ac0:	91 d0 20 00 	ta  0
    6ac4:	01 00 00 00 	nop 
    6ac8:	01 00 00 00 	nop 
    6acc:	01 00 00 00 	nop 

00006ad0 <SW_trap_0xad>:
    6ad0:	91 d0 20 00 	ta  0
    6ad4:	01 00 00 00 	nop 
    6ad8:	01 00 00 00 	nop 
    6adc:	01 00 00 00 	nop 

00006ae0 <SW_trap_0xae>:
    6ae0:	91 d0 20 00 	ta  0
    6ae4:	01 00 00 00 	nop 
    6ae8:	01 00 00 00 	nop 
    6aec:	01 00 00 00 	nop 

00006af0 <SW_trap_0xaf>:
    6af0:	91 d0 20 00 	ta  0
    6af4:	01 00 00 00 	nop 
    6af8:	01 00 00 00 	nop 
    6afc:	01 00 00 00 	nop 

00006b00 <SW_trap_0xb0>:
    6b00:	91 d0 20 00 	ta  0
    6b04:	01 00 00 00 	nop 
    6b08:	01 00 00 00 	nop 
    6b0c:	01 00 00 00 	nop 

00006b10 <SW_trap_0xb1>:
    6b10:	91 d0 20 00 	ta  0
    6b14:	01 00 00 00 	nop 
    6b18:	01 00 00 00 	nop 
    6b1c:	01 00 00 00 	nop 

00006b20 <SW_trap_0xb2>:
    6b20:	91 d0 20 00 	ta  0
    6b24:	01 00 00 00 	nop 
    6b28:	01 00 00 00 	nop 
    6b2c:	01 00 00 00 	nop 

00006b30 <SW_trap_0xb3>:
    6b30:	91 d0 20 00 	ta  0
    6b34:	01 00 00 00 	nop 
    6b38:	01 00 00 00 	nop 
    6b3c:	01 00 00 00 	nop 

00006b40 <SW_trap_0xb4>:
    6b40:	91 d0 20 00 	ta  0
    6b44:	01 00 00 00 	nop 
    6b48:	01 00 00 00 	nop 
    6b4c:	01 00 00 00 	nop 

00006b50 <SW_trap_0xb5>:
    6b50:	91 d0 20 00 	ta  0
    6b54:	01 00 00 00 	nop 
    6b58:	01 00 00 00 	nop 
    6b5c:	01 00 00 00 	nop 

00006b60 <SW_trap_0xb6>:
    6b60:	91 d0 20 00 	ta  0
    6b64:	01 00 00 00 	nop 
    6b68:	01 00 00 00 	nop 
    6b6c:	01 00 00 00 	nop 

00006b70 <SW_trap_0xb7>:
    6b70:	91 d0 20 00 	ta  0
    6b74:	01 00 00 00 	nop 
    6b78:	01 00 00 00 	nop 
    6b7c:	01 00 00 00 	nop 

00006b80 <SW_trap_0xb8>:
    6b80:	91 d0 20 00 	ta  0
    6b84:	01 00 00 00 	nop 
    6b88:	01 00 00 00 	nop 
    6b8c:	01 00 00 00 	nop 

00006b90 <SW_trap_0xb9>:
    6b90:	91 d0 20 00 	ta  0
    6b94:	01 00 00 00 	nop 
    6b98:	01 00 00 00 	nop 
    6b9c:	01 00 00 00 	nop 

00006ba0 <SW_trap_0xba>:
    6ba0:	91 d0 20 00 	ta  0
    6ba4:	01 00 00 00 	nop 
    6ba8:	01 00 00 00 	nop 
    6bac:	01 00 00 00 	nop 

00006bb0 <SW_trap_0xbb>:
    6bb0:	91 d0 20 00 	ta  0
    6bb4:	01 00 00 00 	nop 
    6bb8:	01 00 00 00 	nop 
    6bbc:	01 00 00 00 	nop 

00006bc0 <SW_trap_0xbc>:
    6bc0:	91 d0 20 00 	ta  0
    6bc4:	01 00 00 00 	nop 
    6bc8:	01 00 00 00 	nop 
    6bcc:	01 00 00 00 	nop 

00006bd0 <SW_trap_0xbd>:
    6bd0:	91 d0 20 00 	ta  0
    6bd4:	01 00 00 00 	nop 
    6bd8:	01 00 00 00 	nop 
    6bdc:	01 00 00 00 	nop 

00006be0 <SW_trap_0xbe>:
    6be0:	91 d0 20 00 	ta  0
    6be4:	01 00 00 00 	nop 
    6be8:	01 00 00 00 	nop 
    6bec:	01 00 00 00 	nop 

00006bf0 <SW_trap_0xbf>:
    6bf0:	91 d0 20 00 	ta  0
    6bf4:	01 00 00 00 	nop 
    6bf8:	01 00 00 00 	nop 
    6bfc:	01 00 00 00 	nop 

00006c00 <SW_trap_0xc0>:
    6c00:	91 d0 20 00 	ta  0
    6c04:	01 00 00 00 	nop 
    6c08:	01 00 00 00 	nop 
    6c0c:	01 00 00 00 	nop 

00006c10 <SW_trap_0xc1>:
    6c10:	91 d0 20 00 	ta  0
    6c14:	01 00 00 00 	nop 
    6c18:	01 00 00 00 	nop 
    6c1c:	01 00 00 00 	nop 

00006c20 <SW_trap_0xc2>:
    6c20:	91 d0 20 00 	ta  0
    6c24:	01 00 00 00 	nop 
    6c28:	01 00 00 00 	nop 
    6c2c:	01 00 00 00 	nop 

00006c30 <SW_trap_0xc3>:
    6c30:	91 d0 20 00 	ta  0
    6c34:	01 00 00 00 	nop 
    6c38:	01 00 00 00 	nop 
    6c3c:	01 00 00 00 	nop 

00006c40 <SW_trap_0xc4>:
    6c40:	91 d0 20 00 	ta  0
    6c44:	01 00 00 00 	nop 
    6c48:	01 00 00 00 	nop 
    6c4c:	01 00 00 00 	nop 

00006c50 <SW_trap_0xc5>:
    6c50:	91 d0 20 00 	ta  0
    6c54:	01 00 00 00 	nop 
    6c58:	01 00 00 00 	nop 
    6c5c:	01 00 00 00 	nop 

00006c60 <SW_trap_0xc6>:
    6c60:	91 d0 20 00 	ta  0
    6c64:	01 00 00 00 	nop 
    6c68:	01 00 00 00 	nop 
    6c6c:	01 00 00 00 	nop 

00006c70 <SW_trap_0xc7>:
    6c70:	91 d0 20 00 	ta  0
    6c74:	01 00 00 00 	nop 
    6c78:	01 00 00 00 	nop 
    6c7c:	01 00 00 00 	nop 

00006c80 <SW_trap_0xc8>:
    6c80:	91 d0 20 00 	ta  0
    6c84:	01 00 00 00 	nop 
    6c88:	01 00 00 00 	nop 
    6c8c:	01 00 00 00 	nop 

00006c90 <SW_trap_0xc9>:
    6c90:	91 d0 20 00 	ta  0
    6c94:	01 00 00 00 	nop 
    6c98:	01 00 00 00 	nop 
    6c9c:	01 00 00 00 	nop 

00006ca0 <SW_trap_0xca>:
    6ca0:	91 d0 20 00 	ta  0
    6ca4:	01 00 00 00 	nop 
    6ca8:	01 00 00 00 	nop 
    6cac:	01 00 00 00 	nop 

00006cb0 <SW_trap_0xcb>:
    6cb0:	91 d0 20 00 	ta  0
    6cb4:	01 00 00 00 	nop 
    6cb8:	01 00 00 00 	nop 
    6cbc:	01 00 00 00 	nop 

00006cc0 <SW_trap_0xcc>:
    6cc0:	91 d0 20 00 	ta  0
    6cc4:	01 00 00 00 	nop 
    6cc8:	01 00 00 00 	nop 
    6ccc:	01 00 00 00 	nop 

00006cd0 <SW_trap_0xcd>:
    6cd0:	91 d0 20 00 	ta  0
    6cd4:	01 00 00 00 	nop 
    6cd8:	01 00 00 00 	nop 
    6cdc:	01 00 00 00 	nop 

00006ce0 <SW_trap_0xce>:
    6ce0:	91 d0 20 00 	ta  0
    6ce4:	01 00 00 00 	nop 
    6ce8:	01 00 00 00 	nop 
    6cec:	01 00 00 00 	nop 

00006cf0 <SW_trap_0xcf>:
    6cf0:	91 d0 20 00 	ta  0
    6cf4:	01 00 00 00 	nop 
    6cf8:	01 00 00 00 	nop 
    6cfc:	01 00 00 00 	nop 

00006d00 <SW_trap_0xd0>:
    6d00:	91 d0 20 00 	ta  0
    6d04:	01 00 00 00 	nop 
    6d08:	01 00 00 00 	nop 
    6d0c:	01 00 00 00 	nop 

00006d10 <SW_trap_0xd1>:
    6d10:	91 d0 20 00 	ta  0
    6d14:	01 00 00 00 	nop 
    6d18:	01 00 00 00 	nop 
    6d1c:	01 00 00 00 	nop 

00006d20 <SW_trap_0xd2>:
    6d20:	91 d0 20 00 	ta  0
    6d24:	01 00 00 00 	nop 
    6d28:	01 00 00 00 	nop 
    6d2c:	01 00 00 00 	nop 

00006d30 <SW_trap_0xd3>:
    6d30:	91 d0 20 00 	ta  0
    6d34:	01 00 00 00 	nop 
    6d38:	01 00 00 00 	nop 
    6d3c:	01 00 00 00 	nop 

00006d40 <SW_trap_0xd4>:
    6d40:	91 d0 20 00 	ta  0
    6d44:	01 00 00 00 	nop 
    6d48:	01 00 00 00 	nop 
    6d4c:	01 00 00 00 	nop 

00006d50 <SW_trap_0xd5>:
    6d50:	91 d0 20 00 	ta  0
    6d54:	01 00 00 00 	nop 
    6d58:	01 00 00 00 	nop 
    6d5c:	01 00 00 00 	nop 

00006d60 <SW_trap_0xd6>:
    6d60:	91 d0 20 00 	ta  0
    6d64:	01 00 00 00 	nop 
    6d68:	01 00 00 00 	nop 
    6d6c:	01 00 00 00 	nop 

00006d70 <SW_trap_0xd7>:
    6d70:	91 d0 20 00 	ta  0
    6d74:	01 00 00 00 	nop 
    6d78:	01 00 00 00 	nop 
    6d7c:	01 00 00 00 	nop 

00006d80 <SW_trap_0xd8>:
    6d80:	91 d0 20 00 	ta  0
    6d84:	01 00 00 00 	nop 
    6d88:	01 00 00 00 	nop 
    6d8c:	01 00 00 00 	nop 

00006d90 <SW_trap_0xd9>:
    6d90:	91 d0 20 00 	ta  0
    6d94:	01 00 00 00 	nop 
    6d98:	01 00 00 00 	nop 
    6d9c:	01 00 00 00 	nop 

00006da0 <SW_trap_0xda>:
    6da0:	91 d0 20 00 	ta  0
    6da4:	01 00 00 00 	nop 
    6da8:	01 00 00 00 	nop 
    6dac:	01 00 00 00 	nop 

00006db0 <SW_trap_0xdb>:
    6db0:	91 d0 20 00 	ta  0
    6db4:	01 00 00 00 	nop 
    6db8:	01 00 00 00 	nop 
    6dbc:	01 00 00 00 	nop 

00006dc0 <SW_trap_0xdc>:
    6dc0:	91 d0 20 00 	ta  0
    6dc4:	01 00 00 00 	nop 
    6dc8:	01 00 00 00 	nop 
    6dcc:	01 00 00 00 	nop 

00006dd0 <SW_trap_0xdd>:
    6dd0:	91 d0 20 00 	ta  0
    6dd4:	01 00 00 00 	nop 
    6dd8:	01 00 00 00 	nop 
    6ddc:	01 00 00 00 	nop 

00006de0 <SW_trap_0xde>:
    6de0:	91 d0 20 00 	ta  0
    6de4:	01 00 00 00 	nop 
    6de8:	01 00 00 00 	nop 
    6dec:	01 00 00 00 	nop 

00006df0 <SW_trap_0xdf>:
    6df0:	91 d0 20 00 	ta  0
    6df4:	01 00 00 00 	nop 
    6df8:	01 00 00 00 	nop 
    6dfc:	01 00 00 00 	nop 

00006e00 <SW_trap_0xe0>:
    6e00:	91 d0 20 00 	ta  0
    6e04:	01 00 00 00 	nop 
    6e08:	01 00 00 00 	nop 
    6e0c:	01 00 00 00 	nop 

00006e10 <SW_trap_0xe1>:
    6e10:	91 d0 20 00 	ta  0
    6e14:	01 00 00 00 	nop 
    6e18:	01 00 00 00 	nop 
    6e1c:	01 00 00 00 	nop 

00006e20 <SW_trap_0xe2>:
    6e20:	91 d0 20 00 	ta  0
    6e24:	01 00 00 00 	nop 
    6e28:	01 00 00 00 	nop 
    6e2c:	01 00 00 00 	nop 

00006e30 <SW_trap_0xe3>:
    6e30:	91 d0 20 00 	ta  0
    6e34:	01 00 00 00 	nop 
    6e38:	01 00 00 00 	nop 
    6e3c:	01 00 00 00 	nop 

00006e40 <SW_trap_0xe4>:
    6e40:	91 d0 20 00 	ta  0
    6e44:	01 00 00 00 	nop 
    6e48:	01 00 00 00 	nop 
    6e4c:	01 00 00 00 	nop 

00006e50 <SW_trap_0xe5>:
    6e50:	91 d0 20 00 	ta  0
    6e54:	01 00 00 00 	nop 
    6e58:	01 00 00 00 	nop 
    6e5c:	01 00 00 00 	nop 

00006e60 <SW_trap_0xe6>:
    6e60:	91 d0 20 00 	ta  0
    6e64:	01 00 00 00 	nop 
    6e68:	01 00 00 00 	nop 
    6e6c:	01 00 00 00 	nop 

00006e70 <SW_trap_0xe7>:
    6e70:	91 d0 20 00 	ta  0
    6e74:	01 00 00 00 	nop 
    6e78:	01 00 00 00 	nop 
    6e7c:	01 00 00 00 	nop 

00006e80 <SW_trap_0xe8>:
    6e80:	91 d0 20 00 	ta  0
    6e84:	01 00 00 00 	nop 
    6e88:	01 00 00 00 	nop 
    6e8c:	01 00 00 00 	nop 

00006e90 <SW_trap_0xe9>:
    6e90:	91 d0 20 00 	ta  0
    6e94:	01 00 00 00 	nop 
    6e98:	01 00 00 00 	nop 
    6e9c:	01 00 00 00 	nop 

00006ea0 <SW_trap_0xea>:
    6ea0:	91 d0 20 00 	ta  0
    6ea4:	01 00 00 00 	nop 
    6ea8:	01 00 00 00 	nop 
    6eac:	01 00 00 00 	nop 

00006eb0 <SW_trap_0xeb>:
    6eb0:	91 d0 20 00 	ta  0
    6eb4:	01 00 00 00 	nop 
    6eb8:	01 00 00 00 	nop 
    6ebc:	01 00 00 00 	nop 

00006ec0 <SW_trap_0xec>:
    6ec0:	91 d0 20 00 	ta  0
    6ec4:	01 00 00 00 	nop 
    6ec8:	01 00 00 00 	nop 
    6ecc:	01 00 00 00 	nop 

00006ed0 <SW_trap_0xed>:
    6ed0:	91 d0 20 00 	ta  0
    6ed4:	01 00 00 00 	nop 
    6ed8:	01 00 00 00 	nop 
    6edc:	01 00 00 00 	nop 

00006ee0 <SW_trap_0xee>:
    6ee0:	91 d0 20 00 	ta  0
    6ee4:	01 00 00 00 	nop 
    6ee8:	01 00 00 00 	nop 
    6eec:	01 00 00 00 	nop 

00006ef0 <SW_trap_0xef>:
    6ef0:	91 d0 20 00 	ta  0
    6ef4:	01 00 00 00 	nop 
    6ef8:	01 00 00 00 	nop 
    6efc:	01 00 00 00 	nop 

00006f00 <SW_trap_0xf0>:
    6f00:	91 d0 20 00 	ta  0
    6f04:	01 00 00 00 	nop 
    6f08:	01 00 00 00 	nop 
    6f0c:	01 00 00 00 	nop 

00006f10 <SW_trap_0xf1>:
    6f10:	91 d0 20 00 	ta  0
    6f14:	01 00 00 00 	nop 
    6f18:	01 00 00 00 	nop 
    6f1c:	01 00 00 00 	nop 

00006f20 <SW_trap_0xf2>:
    6f20:	91 d0 20 00 	ta  0
    6f24:	01 00 00 00 	nop 
    6f28:	01 00 00 00 	nop 
    6f2c:	01 00 00 00 	nop 

00006f30 <SW_trap_0xf3>:
    6f30:	91 d0 20 00 	ta  0
    6f34:	01 00 00 00 	nop 
    6f38:	01 00 00 00 	nop 
    6f3c:	01 00 00 00 	nop 

00006f40 <SW_trap_0xf4>:
    6f40:	91 d0 20 00 	ta  0
    6f44:	01 00 00 00 	nop 
    6f48:	01 00 00 00 	nop 
    6f4c:	01 00 00 00 	nop 

00006f50 <SW_trap_0xf5>:
    6f50:	91 d0 20 00 	ta  0
    6f54:	01 00 00 00 	nop 
    6f58:	01 00 00 00 	nop 
    6f5c:	01 00 00 00 	nop 

00006f60 <SW_trap_0xf6>:
    6f60:	91 d0 20 00 	ta  0
    6f64:	01 00 00 00 	nop 
    6f68:	01 00 00 00 	nop 
    6f6c:	01 00 00 00 	nop 

00006f70 <SW_trap_0xf7>:
    6f70:	91 d0 20 00 	ta  0
    6f74:	01 00 00 00 	nop 
    6f78:	01 00 00 00 	nop 
    6f7c:	01 00 00 00 	nop 

00006f80 <SW_trap_0xf8>:
    6f80:	91 d0 20 00 	ta  0
    6f84:	01 00 00 00 	nop 
    6f88:	01 00 00 00 	nop 
    6f8c:	01 00 00 00 	nop 

00006f90 <SW_trap_0xf9>:
    6f90:	91 d0 20 00 	ta  0
    6f94:	01 00 00 00 	nop 
    6f98:	01 00 00 00 	nop 
    6f9c:	01 00 00 00 	nop 

00006fa0 <SW_trap_0xfa>:
    6fa0:	91 d0 20 00 	ta  0
    6fa4:	01 00 00 00 	nop 
    6fa8:	01 00 00 00 	nop 
    6fac:	01 00 00 00 	nop 

00006fb0 <SW_trap_0xfb>:
    6fb0:	91 d0 20 00 	ta  0
    6fb4:	01 00 00 00 	nop 
    6fb8:	01 00 00 00 	nop 
    6fbc:	01 00 00 00 	nop 

00006fc0 <SW_trap_0xfc>:
    6fc0:	91 d0 20 00 	ta  0
    6fc4:	01 00 00 00 	nop 
    6fc8:	01 00 00 00 	nop 
    6fcc:	01 00 00 00 	nop 

00006fd0 <SW_trap_0xfd>:
    6fd0:	91 d0 20 00 	ta  0
    6fd4:	01 00 00 00 	nop 
    6fd8:	01 00 00 00 	nop 
    6fdc:	01 00 00 00 	nop 

00006fe0 <SW_trap_0xfe>:
    6fe0:	91 d0 20 00 	ta  0
    6fe4:	01 00 00 00 	nop 
    6fe8:	01 00 00 00 	nop 
    6fec:	01 00 00 00 	nop 
    6ff0:	01 00 00 00 	nop 
    6ff4:	01 00 00 00 	nop 

00006ff8 <__sparc_get_pc_thunk.l7>:
    6ff8:	81 c3 e0 08 	retl 
    6ffc:	ae 03 c0 17 	add  %o7, %l7, %l7
